Component: ARM Compiler 5.05 update 1 (build 106) Tool: armlink [4d0efa]

==============================================================================

Section Cross References

    startup_stm32f10x_hd.o(RESET) refers to startup_stm32f10x_hd.o(STACK) for __initial_sp
    startup_stm32f10x_hd.o(RESET) refers to startup_stm32f10x_hd.o(.text) for Reset_Handler
    startup_stm32f10x_hd.o(RESET) refers to stm32f10x_it.o(i.NMI_Handler) for NMI_Handler
    startup_stm32f10x_hd.o(RESET) refers to stm32f10x_it.o(i.HardFault_Handler) for HardFault_Handler
    startup_stm32f10x_hd.o(RESET) refers to stm32f10x_it.o(i.MemManage_Handler) for MemManage_Handler
    startup_stm32f10x_hd.o(RESET) refers to stm32f10x_it.o(i.BusFault_Handler) for BusFault_Handler
    startup_stm32f10x_hd.o(RESET) refers to stm32f10x_it.o(i.UsageFault_Handler) for UsageFault_Handler
    startup_stm32f10x_hd.o(RESET) refers to port.o(.emb_text) for SVC_Handler
    startup_stm32f10x_hd.o(RESET) refers to stm32f10x_it.o(i.DebugMon_Handler) for DebugMon_Handler
    startup_stm32f10x_hd.o(RESET) refers to delay.o(i.SysTick_Handler) for SysTick_Handler
    startup_stm32f10x_hd.o(RESET) refers to key.o(i.EXTI2_IRQHandler) for EXTI2_IRQHandler
    startup_stm32f10x_hd.o(RESET) refers to key.o(i.EXTI3_IRQHandler) for EXTI3_IRQHandler
    startup_stm32f10x_hd.o(RESET) refers to key.o(i.EXTI4_IRQHandler) for EXTI4_IRQHandler
    startup_stm32f10x_hd.o(RESET) refers to timer.o(i.TIM3_IRQHandler) for TIM3_IRQHandler
    startup_stm32f10x_hd.o(RESET) refers to usart.o(i.USART1_IRQHandler) for USART1_IRQHandler
    startup_stm32f10x_hd.o(RESET) refers to usart.o(i.USART2_IRQHandler) for USART2_IRQHandler
    startup_stm32f10x_hd.o(RESET) refers to usart.o(i.USART3_IRQHandler) for USART3_IRQHandler
    startup_stm32f10x_hd.o(RESET) refers to key.o(i.EXTI15_10_IRQHandler) for EXTI15_10_IRQHandler
    startup_stm32f10x_hd.o(.text) refers to system_stm32f10x.o(i.SystemInit) for SystemInit
    startup_stm32f10x_hd.o(.text) refers to entry.o(.ARM.Collect$$$$00000000) for __main
    stm32f10x_adc.o(i.ADC_DeInit) refers to stm32f10x_rcc.o(i.RCC_APB2PeriphResetCmd) for RCC_APB2PeriphResetCmd
    stm32f10x_bkp.o(i.BKP_DeInit) refers to stm32f10x_rcc.o(i.RCC_BackupResetCmd) for RCC_BackupResetCmd
    stm32f10x_can.o(i.CAN_DeInit) refers to stm32f10x_rcc.o(i.RCC_APB1PeriphResetCmd) for RCC_APB1PeriphResetCmd
    stm32f10x_can.o(i.CAN_GetITStatus) refers to stm32f10x_can.o(i.CheckITStatus) for CheckITStatus
    stm32f10x_cec.o(i.CEC_DeInit) refers to stm32f10x_rcc.o(i.RCC_APB1PeriphResetCmd) for RCC_APB1PeriphResetCmd
    stm32f10x_dac.o(i.DAC_DeInit) refers to stm32f10x_rcc.o(i.RCC_APB1PeriphResetCmd) for RCC_APB1PeriphResetCmd
    stm32f10x_flash.o(i.FLASH_EnableWriteProtection) refers to stm32f10x_flash.o(i.FLASH_WaitForLastOperation) for FLASH_WaitForLastOperation
    stm32f10x_flash.o(i.FLASH_EraseAllBank1Pages) refers to stm32f10x_flash.o(i.FLASH_WaitForLastBank1Operation) for FLASH_WaitForLastBank1Operation
    stm32f10x_flash.o(i.FLASH_EraseAllPages) refers to stm32f10x_flash.o(i.FLASH_WaitForLastOperation) for FLASH_WaitForLastOperation
    stm32f10x_flash.o(i.FLASH_EraseOptionBytes) refers to stm32f10x_flash.o(i.FLASH_GetReadOutProtectionStatus) for FLASH_GetReadOutProtectionStatus
    stm32f10x_flash.o(i.FLASH_EraseOptionBytes) refers to stm32f10x_flash.o(i.FLASH_WaitForLastOperation) for FLASH_WaitForLastOperation
    stm32f10x_flash.o(i.FLASH_ErasePage) refers to stm32f10x_flash.o(i.FLASH_WaitForLastOperation) for FLASH_WaitForLastOperation
    stm32f10x_flash.o(i.FLASH_ProgramHalfWord) refers to stm32f10x_flash.o(i.FLASH_WaitForLastOperation) for FLASH_WaitForLastOperation
    stm32f10x_flash.o(i.FLASH_ProgramOptionByteData) refers to stm32f10x_flash.o(i.FLASH_WaitForLastOperation) for FLASH_WaitForLastOperation
    stm32f10x_flash.o(i.FLASH_ProgramWord) refers to stm32f10x_flash.o(i.FLASH_WaitForLastOperation) for FLASH_WaitForLastOperation
    stm32f10x_flash.o(i.FLASH_ReadOutProtection) refers to stm32f10x_flash.o(i.FLASH_WaitForLastOperation) for FLASH_WaitForLastOperation
    stm32f10x_flash.o(i.FLASH_UserOptionByteConfig) refers to stm32f10x_flash.o(i.FLASH_WaitForLastOperation) for FLASH_WaitForLastOperation
    stm32f10x_flash.o(i.FLASH_WaitForLastBank1Operation) refers to stm32f10x_flash.o(i.FLASH_GetBank1Status) for FLASH_GetBank1Status
    stm32f10x_flash.o(i.FLASH_WaitForLastOperation) refers to stm32f10x_flash.o(i.FLASH_GetBank1Status) for FLASH_GetBank1Status
    stm32f10x_gpio.o(i.GPIO_AFIODeInit) refers to stm32f10x_rcc.o(i.RCC_APB2PeriphResetCmd) for RCC_APB2PeriphResetCmd
    stm32f10x_gpio.o(i.GPIO_DeInit) refers to stm32f10x_rcc.o(i.RCC_APB2PeriphResetCmd) for RCC_APB2PeriphResetCmd
    stm32f10x_i2c.o(i.I2C_DeInit) refers to stm32f10x_rcc.o(i.RCC_APB1PeriphResetCmd) for RCC_APB1PeriphResetCmd
    stm32f10x_i2c.o(i.I2C_Init) refers to stm32f10x_rcc.o(i.RCC_GetClocksFreq) for RCC_GetClocksFreq
    stm32f10x_pwr.o(i.PWR_DeInit) refers to stm32f10x_rcc.o(i.RCC_APB1PeriphResetCmd) for RCC_APB1PeriphResetCmd
    stm32f10x_rcc.o(i.RCC_GetClocksFreq) refers to stm32f10x_rcc.o(.data) for APBAHBPrescTable
    stm32f10x_rcc.o(i.RCC_WaitForHSEStartUp) refers to stm32f10x_rcc.o(i.RCC_GetFlagStatus) for RCC_GetFlagStatus
    stm32f10x_rtc.o(i.RTC_SetAlarm) refers to stm32f10x_rtc.o(i.RTC_EnterConfigMode) for RTC_EnterConfigMode
    stm32f10x_rtc.o(i.RTC_SetAlarm) refers to stm32f10x_rtc.o(i.RTC_ExitConfigMode) for RTC_ExitConfigMode
    stm32f10x_rtc.o(i.RTC_SetCounter) refers to stm32f10x_rtc.o(i.RTC_EnterConfigMode) for RTC_EnterConfigMode
    stm32f10x_rtc.o(i.RTC_SetCounter) refers to stm32f10x_rtc.o(i.RTC_ExitConfigMode) for RTC_ExitConfigMode
    stm32f10x_rtc.o(i.RTC_SetPrescaler) refers to stm32f10x_rtc.o(i.RTC_EnterConfigMode) for RTC_EnterConfigMode
    stm32f10x_rtc.o(i.RTC_SetPrescaler) refers to stm32f10x_rtc.o(i.RTC_ExitConfigMode) for RTC_ExitConfigMode
    stm32f10x_spi.o(i.I2S_Init) refers to stm32f10x_rcc.o(i.RCC_GetClocksFreq) for RCC_GetClocksFreq
    stm32f10x_spi.o(i.SPI_I2S_DeInit) refers to stm32f10x_rcc.o(i.RCC_APB2PeriphResetCmd) for RCC_APB2PeriphResetCmd
    stm32f10x_spi.o(i.SPI_I2S_DeInit) refers to stm32f10x_rcc.o(i.RCC_APB1PeriphResetCmd) for RCC_APB1PeriphResetCmd
    stm32f10x_tim.o(i.TIM_DeInit) refers to stm32f10x_rcc.o(i.RCC_APB2PeriphResetCmd) for RCC_APB2PeriphResetCmd
    stm32f10x_tim.o(i.TIM_DeInit) refers to stm32f10x_rcc.o(i.RCC_APB1PeriphResetCmd) for RCC_APB1PeriphResetCmd
    stm32f10x_tim.o(i.TIM_ETRClockMode1Config) refers to stm32f10x_tim.o(i.TIM_ETRConfig) for TIM_ETRConfig
    stm32f10x_tim.o(i.TIM_ETRClockMode2Config) refers to stm32f10x_tim.o(i.TIM_ETRConfig) for TIM_ETRConfig
    stm32f10x_tim.o(i.TIM_ICInit) refers to stm32f10x_tim.o(i.TI1_Config) for TI1_Config
    stm32f10x_tim.o(i.TIM_ICInit) refers to stm32f10x_tim.o(i.TIM_SetIC1Prescaler) for TIM_SetIC1Prescaler
    stm32f10x_tim.o(i.TIM_ICInit) refers to stm32f10x_tim.o(i.TI2_Config) for TI2_Config
    stm32f10x_tim.o(i.TIM_ICInit) refers to stm32f10x_tim.o(i.TIM_SetIC2Prescaler) for TIM_SetIC2Prescaler
    stm32f10x_tim.o(i.TIM_ICInit) refers to stm32f10x_tim.o(i.TI3_Config) for TI3_Config
    stm32f10x_tim.o(i.TIM_ICInit) refers to stm32f10x_tim.o(i.TIM_SetIC3Prescaler) for TIM_SetIC3Prescaler
    stm32f10x_tim.o(i.TIM_ICInit) refers to stm32f10x_tim.o(i.TI4_Config) for TI4_Config
    stm32f10x_tim.o(i.TIM_ICInit) refers to stm32f10x_tim.o(i.TIM_SetIC4Prescaler) for TIM_SetIC4Prescaler
    stm32f10x_tim.o(i.TIM_ITRxExternalClockConfig) refers to stm32f10x_tim.o(i.TIM_SelectInputTrigger) for TIM_SelectInputTrigger
    stm32f10x_tim.o(i.TIM_PWMIConfig) refers to stm32f10x_tim.o(i.TI1_Config) for TI1_Config
    stm32f10x_tim.o(i.TIM_PWMIConfig) refers to stm32f10x_tim.o(i.TIM_SetIC1Prescaler) for TIM_SetIC1Prescaler
    stm32f10x_tim.o(i.TIM_PWMIConfig) refers to stm32f10x_tim.o(i.TI2_Config) for TI2_Config
    stm32f10x_tim.o(i.TIM_PWMIConfig) refers to stm32f10x_tim.o(i.TIM_SetIC2Prescaler) for TIM_SetIC2Prescaler
    stm32f10x_tim.o(i.TIM_TIxExternalClockConfig) refers to stm32f10x_tim.o(i.TI2_Config) for TI2_Config
    stm32f10x_tim.o(i.TIM_TIxExternalClockConfig) refers to stm32f10x_tim.o(i.TI1_Config) for TI1_Config
    stm32f10x_tim.o(i.TIM_TIxExternalClockConfig) refers to stm32f10x_tim.o(i.TIM_SelectInputTrigger) for TIM_SelectInputTrigger
    stm32f10x_usart.o(i.USART_DeInit) refers to stm32f10x_rcc.o(i.RCC_APB2PeriphResetCmd) for RCC_APB2PeriphResetCmd
    stm32f10x_usart.o(i.USART_DeInit) refers to stm32f10x_rcc.o(i.RCC_APB1PeriphResetCmd) for RCC_APB1PeriphResetCmd
    stm32f10x_usart.o(i.USART_Init) refers to stm32f10x_rcc.o(i.RCC_GetClocksFreq) for RCC_GetClocksFreq
    stm32f10x_wwdg.o(i.WWDG_DeInit) refers to stm32f10x_rcc.o(i.RCC_APB1PeriphResetCmd) for RCC_APB1PeriphResetCmd
    main.o(i._CMIOT_BatteryChargeGpioInit) refers to stm32f10x_rcc.o(i.RCC_APB2PeriphClockCmd) for RCC_APB2PeriphClockCmd
    main.o(i._CMIOT_BatteryChargeGpioInit) refers to stm32f10x_gpio.o(i.GPIO_Init) for GPIO_Init
    main.o(i._CMIOT_BatteryCheckInit) refers to main.o(i._CMIOT_BatteryChargeGpioInit) for _CMIOT_BatteryChargeGpioInit
    main.o(i._CMIOT_BatteryCheckInit) refers to main.o(i._CMIOT_StartBatteryStateShow) for _CMIOT_StartBatteryStateShow
    main.o(i._CMIOT_BluetoothTaskProc) refers to tasks.o(i.ulTaskNotifyTake) for ulTaskNotifyTake
    main.o(i._CMIOT_BluetoothTaskProc) refers to common.o(i._CMIOT_Debug) for _CMIOT_Debug
    main.o(i._CMIOT_BluetoothTaskProc) refers to bluetooth.o(i._CMIOT_BLE_DataProcess) for _CMIOT_BLE_DataProcess
    main.o(i._CMIOT_BluetoothTaskProc) refers to main.o(.constdata) for __func__
    main.o(i._CMIOT_CliTaskProc) refers to common.o(i._CMIOT_Debug) for _CMIOT_Debug
    main.o(i._CMIOT_CliTaskProc) refers to user_cli.o(i._CMIOT_CLI_Init) for _CMIOT_CLI_Init
    main.o(i._CMIOT_CliTaskProc) refers to tasks.o(i.ulTaskNotifyTake) for ulTaskNotifyTake
    main.o(i._CMIOT_CliTaskProc) refers to memseta.o(.text) for __aeabi_memclr
    main.o(i._CMIOT_CliTaskProc) refers to freertos_cli.o(i.FreeRTOS_CLIProcessCommand) for FreeRTOS_CLIProcessCommand
    main.o(i._CMIOT_CliTaskProc) refers to strlen.o(.text) for strlen
    main.o(i._CMIOT_CliTaskProc) refers to usart.o(i._CMIOT_Uart_send) for _CMIOT_Uart_send
    main.o(i._CMIOT_CliTaskProc) refers to main.o(.constdata) for __func__
    main.o(i._CMIOT_CliTaskProc) refers to main.o(.bss) for pcOutputString
    main.o(i._CMIOT_CliTaskProc) refers to main.o(.data) for UART_CLI_RxBufferLen
    main.o(i._CMIOT_IWDG_Configuration) refers to stm32f10x_rcc.o(i.RCC_LSICmd) for RCC_LSICmd
    main.o(i._CMIOT_IWDG_Configuration) refers to stm32f10x_rcc.o(i.RCC_GetFlagStatus) for RCC_GetFlagStatus
    main.o(i._CMIOT_IWDG_Configuration) refers to stm32f10x_iwdg.o(i.IWDG_WriteAccessCmd) for IWDG_WriteAccessCmd
    main.o(i._CMIOT_IWDG_Configuration) refers to stm32f10x_iwdg.o(i.IWDG_SetPrescaler) for IWDG_SetPrescaler
    main.o(i._CMIOT_IWDG_Configuration) refers to stm32f10x_iwdg.o(i.IWDG_SetReload) for IWDG_SetReload
    main.o(i._CMIOT_IWDG_Configuration) refers to stm32f10x_iwdg.o(i.IWDG_ReloadCounter) for IWDG_ReloadCounter
    main.o(i._CMIOT_IWDG_Configuration) refers to stm32f10x_iwdg.o(i.IWDG_Enable) for IWDG_Enable
    main.o(i._CMIOT_IWDG_Configuration) refers to timers.o(i.xTimerCreate) for xTimerCreate
    main.o(i._CMIOT_IWDG_Configuration) refers to tasks.o(i.xTaskGetTickCount) for xTaskGetTickCount
    main.o(i._CMIOT_IWDG_Configuration) refers to timers.o(i.xTimerGenericCommand) for xTimerGenericCommand
    main.o(i._CMIOT_IWDG_ReloadCounter) refers to common.o(i._CMIOT_Debug) for _CMIOT_Debug
    main.o(i._CMIOT_IWDG_ReloadCounter) refers to stm32f10x_iwdg.o(i.IWDG_ReloadCounter) for IWDG_ReloadCounter
    main.o(i._CMIOT_IWDG_ReloadCounter) refers to main.o(.constdata) for __func__
    main.o(i._CMIOT_LcdTaskProc) refers to common.o(i._CMIOT_Debug) for _CMIOT_Debug
    main.o(i._CMIOT_LcdTaskProc) refers to ui.o(i._CMIOT_TabIndex) for _CMIOT_TabIndex
    main.o(i._CMIOT_LcdTaskProc) refers to main.o(.data) for CM_UI_BUSY
    main.o(i._CMIOT_LcdTaskProc) refers to main.o(.constdata) for __func__
    main.o(i._CMIOT_M5310TaskProc) refers to key.o(i.cm_key_init) for cm_key_init
    main.o(i._CMIOT_M5310TaskProc) refers to port.o(i.vPortEnterCritical) for vPortEnterCritical
    main.o(i._CMIOT_M5310TaskProc) refers to tasks.o(i.xTaskCreate) for xTaskCreate
    main.o(i._CMIOT_M5310TaskProc) refers to port.o(i.vPortExitCritical) for vPortExitCritical
    main.o(i._CMIOT_M5310TaskProc) refers to tasks.o(i.ulTaskNotifyTake) for ulTaskNotifyTake
    main.o(i._CMIOT_M5310TaskProc) refers to common.o(i._CMIOT_Debug) for _CMIOT_Debug
    main.o(i._CMIOT_M5310TaskProc) refers to tasks.o(i.vTaskDelete) for vTaskDelete
    main.o(i._CMIOT_M5310TaskProc) refers to main.o(.data) for lcd_task
    main.o(i._CMIOT_M5310TaskProc) refers to main.o(i._CMIOT_LcdTaskProc) for _CMIOT_LcdTaskProc
    main.o(i._CMIOT_M5310TaskProc) refers to main.o(.constdata) for __func__
    main.o(i._CMIOT_StartBatteryStateShow) refers to timers.o(i.xTimerCreate) for xTimerCreate
    main.o(i._CMIOT_StartBatteryStateShow) refers to tasks.o(i.xTaskGetTickCount) for xTaskGetTickCount
    main.o(i._CMIOT_StartBatteryStateShow) refers to timers.o(i.xTimerGenericCommand) for xTimerGenericCommand
    main.o(i._CMIOT_StartBatteryStateShow) refers to ui.o(i._CMIOT_ShowBatteryTips) for _CMIOT_ShowBatteryTips
    main.o(i._CMIOT_StartTaskProc) refers to common.o(i._CMIOT_Debug) for _CMIOT_Debug
    main.o(i._CMIOT_StartTaskProc) refers to main.o(i._CMIOT_IWDG_Configuration) for _CMIOT_IWDG_Configuration
    main.o(i._CMIOT_StartTaskProc) refers to port.o(i.vPortEnterCritical) for vPortEnterCritical
    main.o(i._CMIOT_StartTaskProc) refers to tasks.o(i.xTaskCreate) for xTaskCreate
    main.o(i._CMIOT_StartTaskProc) refers to tasks.o(i.vTaskDelete) for vTaskDelete
    main.o(i._CMIOT_StartTaskProc) refers to port.o(i.vPortExitCritical) for vPortExitCritical
    main.o(i._CMIOT_StartTaskProc) refers to main.o(.constdata) for __func__
    main.o(i._CMIOT_StartTaskProc) refers to main.o(.data) for cli_task
    main.o(i._CMIOT_StartTaskProc) refers to main.o(i._CMIOT_CliTaskProc) for _CMIOT_CliTaskProc
    main.o(i._CMIOT_StartTaskProc) refers to main.o(i._CMIOT_M5310TaskProc) for _CMIOT_M5310TaskProc
    main.o(i._CMIOT_StartTaskProc) refers to main.o(i._CMIOT_BluetoothTaskProc) for _CMIOT_BluetoothTaskProc
    main.o(i.main) refers to delay.o(i.delay_init) for delay_init
    main.o(i.main) refers to misc.o(i.NVIC_PriorityGroupConfig) for NVIC_PriorityGroupConfig
    main.o(i.main) refers to st7789s.o(i.LCD_Init) for LCD_Init
    main.o(i.main) refers to ui.o(i._CMIOT_UI_BootPage) for _CMIOT_UI_BootPage
    main.o(i.main) refers to usart.o(i._CMIOT_Uart_Init) for _CMIOT_Uart_Init
    main.o(i.main) refers to common.o(i._CMIOT_Debug) for _CMIOT_Debug
    main.o(i.main) refers to st7789s.o(i.LCD_ShowString) for LCD_ShowString
    main.o(i.main) refers to delay.o(i.delay_ms) for delay_ms
    main.o(i.main) refers to m5310.o(i._CMIOT_M5310_Init) for _CMIOT_M5310_Init
    main.o(i.main) refers to adc.o(i.Adc_Init) for Adc_Init
    main.o(i.main) refers to stm32f10x_rcc.o(i.RCC_GetFlagStatus) for RCC_GetFlagStatus
    main.o(i.main) refers to stm32f10x_rcc.o(i.RCC_ClearFlag) for RCC_ClearFlag
    main.o(i.main) refers to bluetooth.o(i._CMIOT_BleResetGpioInit) for _CMIOT_BleResetGpioInit
    main.o(i.main) refers to bluetooth.o(i._CMIOT_BleReset) for _CMIOT_BleReset
    main.o(i.main) refers to bluetooth.o(i._CMIOT_BLE_Init) for _CMIOT_BLE_Init
    main.o(i.main) refers to main.o(i._CMIOT_BatteryCheckInit) for _CMIOT_BatteryCheckInit
    main.o(i.main) refers to tasks.o(i.xTaskCreate) for xTaskCreate
    main.o(i.main) refers to tasks.o(i.vTaskStartScheduler) for vTaskStartScheduler
    main.o(i.main) refers to main.o(.constdata) for __func__
    main.o(i.main) refers to st7789s.o(.data) for POINT_COLOR
    main.o(i.main) refers to main.o(.data) for start_task
    main.o(i.main) refers to main.o(i._CMIOT_StartTaskProc) for _CMIOT_StartTaskProc
    system_stm32f10x.o(i.SetSysClock) refers to system_stm32f10x.o(i.SetSysClockTo72) for SetSysClockTo72
    system_stm32f10x.o(i.SystemCoreClockUpdate) refers to system_stm32f10x.o(.data) for SystemCoreClock
    system_stm32f10x.o(i.SystemInit) refers to system_stm32f10x.o(i.SetSysClock) for SetSysClock
    event_groups.o(i.vEventGroupClearBitsCallback) refers to event_groups.o(i.xEventGroupClearBits) for xEventGroupClearBits
    event_groups.o(i.vEventGroupDelete) refers to tasks.o(i.vTaskSuspendAll) for vTaskSuspendAll
    event_groups.o(i.vEventGroupDelete) refers to tasks.o(i.vTaskRemoveFromUnorderedEventList) for vTaskRemoveFromUnorderedEventList
    event_groups.o(i.vEventGroupDelete) refers to heap_4.o(i.vPortFree) for vPortFree
    event_groups.o(i.vEventGroupDelete) refers to tasks.o(i.xTaskResumeAll) for xTaskResumeAll
    event_groups.o(i.vEventGroupSetBitsCallback) refers to event_groups.o(i.xEventGroupSetBits) for xEventGroupSetBits
    event_groups.o(i.xEventGroupClearBits) refers to port.o(i.vPortEnterCritical) for vPortEnterCritical
    event_groups.o(i.xEventGroupClearBits) refers to port.o(i.vPortExitCritical) for vPortExitCritical
    event_groups.o(i.xEventGroupCreate) refers to heap_4.o(i.pvPortMalloc) for pvPortMalloc
    event_groups.o(i.xEventGroupCreate) refers to list.o(i.vListInitialise) for vListInitialise
    event_groups.o(i.xEventGroupSetBits) refers to tasks.o(i.vTaskSuspendAll) for vTaskSuspendAll
    event_groups.o(i.xEventGroupSetBits) refers to tasks.o(i.vTaskRemoveFromUnorderedEventList) for vTaskRemoveFromUnorderedEventList
    event_groups.o(i.xEventGroupSetBits) refers to tasks.o(i.xTaskResumeAll) for xTaskResumeAll
    event_groups.o(i.xEventGroupSync) refers to tasks.o(i.vTaskSuspendAll) for vTaskSuspendAll
    event_groups.o(i.xEventGroupSync) refers to event_groups.o(i.xEventGroupSetBits) for xEventGroupSetBits
    event_groups.o(i.xEventGroupSync) refers to tasks.o(i.vTaskPlaceOnUnorderedEventList) for vTaskPlaceOnUnorderedEventList
    event_groups.o(i.xEventGroupSync) refers to tasks.o(i.xTaskResumeAll) for xTaskResumeAll
    event_groups.o(i.xEventGroupSync) refers to tasks.o(i.uxTaskResetEventItemValue) for uxTaskResetEventItemValue
    event_groups.o(i.xEventGroupSync) refers to port.o(i.vPortEnterCritical) for vPortEnterCritical
    event_groups.o(i.xEventGroupSync) refers to port.o(i.vPortExitCritical) for vPortExitCritical
    event_groups.o(i.xEventGroupWaitBits) refers to tasks.o(i.vTaskSuspendAll) for vTaskSuspendAll
    event_groups.o(i.xEventGroupWaitBits) refers to event_groups.o(i.prvTestWaitCondition) for prvTestWaitCondition
    event_groups.o(i.xEventGroupWaitBits) refers to tasks.o(i.vTaskPlaceOnUnorderedEventList) for vTaskPlaceOnUnorderedEventList
    event_groups.o(i.xEventGroupWaitBits) refers to tasks.o(i.xTaskResumeAll) for xTaskResumeAll
    event_groups.o(i.xEventGroupWaitBits) refers to tasks.o(i.uxTaskResetEventItemValue) for uxTaskResetEventItemValue
    event_groups.o(i.xEventGroupWaitBits) refers to port.o(i.vPortEnterCritical) for vPortEnterCritical
    event_groups.o(i.xEventGroupWaitBits) refers to port.o(i.vPortExitCritical) for vPortExitCritical
    queue.o(i.pcQueueGetName) refers to queue.o(.bss) for xQueueRegistry
    queue.o(i.prvCopyDataFromQueue) refers to memcpya.o(.text) for __aeabi_memcpy
    queue.o(i.prvCopyDataToQueue) refers to tasks.o(i.xTaskPriorityDisinherit) for xTaskPriorityDisinherit
    queue.o(i.prvCopyDataToQueue) refers to memcpya.o(.text) for __aeabi_memcpy
    queue.o(i.prvInitialiseMutex) refers to queue.o(i.xQueueGenericSend) for xQueueGenericSend
    queue.o(i.prvInitialiseNewQueue) refers to queue.o(i.xQueueGenericReset) for xQueueGenericReset
    queue.o(i.prvIsQueueEmpty) refers to port.o(i.vPortEnterCritical) for vPortEnterCritical
    queue.o(i.prvIsQueueEmpty) refers to port.o(i.vPortExitCritical) for vPortExitCritical
    queue.o(i.prvIsQueueFull) refers to port.o(i.vPortEnterCritical) for vPortEnterCritical
    queue.o(i.prvIsQueueFull) refers to port.o(i.vPortExitCritical) for vPortExitCritical
    queue.o(i.prvNotifyQueueSetContainer) refers to queue.o(i.prvCopyDataToQueue) for prvCopyDataToQueue
    queue.o(i.prvNotifyQueueSetContainer) refers to tasks.o(i.xTaskRemoveFromEventList) for xTaskRemoveFromEventList
    queue.o(i.prvUnlockQueue) refers to port.o(i.vPortEnterCritical) for vPortEnterCritical
    queue.o(i.prvUnlockQueue) refers to queue.o(i.prvNotifyQueueSetContainer) for prvNotifyQueueSetContainer
    queue.o(i.prvUnlockQueue) refers to tasks.o(i.vTaskMissedYield) for vTaskMissedYield
    queue.o(i.prvUnlockQueue) refers to tasks.o(i.xTaskRemoveFromEventList) for xTaskRemoveFromEventList
    queue.o(i.prvUnlockQueue) refers to port.o(i.vPortExitCritical) for vPortExitCritical
    queue.o(i.uxQueueMessagesWaiting) refers to port.o(i.vPortEnterCritical) for vPortEnterCritical
    queue.o(i.uxQueueMessagesWaiting) refers to port.o(i.vPortExitCritical) for vPortExitCritical
    queue.o(i.uxQueueSpacesAvailable) refers to port.o(i.vPortEnterCritical) for vPortEnterCritical
    queue.o(i.uxQueueSpacesAvailable) refers to port.o(i.vPortExitCritical) for vPortExitCritical
    queue.o(i.vQueueAddToRegistry) refers to queue.o(.bss) for xQueueRegistry
    queue.o(i.vQueueDelete) refers to queue.o(i.vQueueUnregisterQueue) for vQueueUnregisterQueue
    queue.o(i.vQueueDelete) refers to heap_4.o(i.vPortFree) for vPortFree
    queue.o(i.vQueueUnregisterQueue) refers to queue.o(.bss) for xQueueRegistry
    queue.o(i.vQueueWaitForMessageRestricted) refers to port.o(i.vPortEnterCritical) for vPortEnterCritical
    queue.o(i.vQueueWaitForMessageRestricted) refers to port.o(i.vPortExitCritical) for vPortExitCritical
    queue.o(i.vQueueWaitForMessageRestricted) refers to tasks.o(i.vTaskPlaceOnEventListRestricted) for vTaskPlaceOnEventListRestricted
    queue.o(i.vQueueWaitForMessageRestricted) refers to queue.o(i.prvUnlockQueue) for prvUnlockQueue
    queue.o(i.xQueueAddToSet) refers to port.o(i.vPortEnterCritical) for vPortEnterCritical
    queue.o(i.xQueueAddToSet) refers to port.o(i.vPortExitCritical) for vPortExitCritical
    queue.o(i.xQueueCreateCountingSemaphore) refers to queue.o(i.xQueueGenericCreate) for xQueueGenericCreate
    queue.o(i.xQueueCreateMutex) refers to queue.o(i.xQueueGenericCreate) for xQueueGenericCreate
    queue.o(i.xQueueCreateMutex) refers to queue.o(i.prvInitialiseMutex) for prvInitialiseMutex
    queue.o(i.xQueueCreateSet) refers to queue.o(i.xQueueGenericCreate) for xQueueGenericCreate
    queue.o(i.xQueueGenericCreate) refers to heap_4.o(i.pvPortMalloc) for pvPortMalloc
    queue.o(i.xQueueGenericCreate) refers to queue.o(i.prvInitialiseNewQueue) for prvInitialiseNewQueue
    queue.o(i.xQueueGenericReset) refers to port.o(i.vPortEnterCritical) for vPortEnterCritical
    queue.o(i.xQueueGenericReset) refers to tasks.o(i.xTaskRemoveFromEventList) for xTaskRemoveFromEventList
    queue.o(i.xQueueGenericReset) refers to list.o(i.vListInitialise) for vListInitialise
    queue.o(i.xQueueGenericReset) refers to port.o(i.vPortExitCritical) for vPortExitCritical
    queue.o(i.xQueueGenericSend) refers to port.o(i.vPortEnterCritical) for vPortEnterCritical
    queue.o(i.xQueueGenericSend) refers to queue.o(i.prvCopyDataToQueue) for prvCopyDataToQueue
    queue.o(i.xQueueGenericSend) refers to queue.o(i.prvNotifyQueueSetContainer) for prvNotifyQueueSetContainer
    queue.o(i.xQueueGenericSend) refers to tasks.o(i.xTaskRemoveFromEventList) for xTaskRemoveFromEventList
    queue.o(i.xQueueGenericSend) refers to port.o(i.vPortExitCritical) for vPortExitCritical
    queue.o(i.xQueueGenericSend) refers to tasks.o(i.vTaskInternalSetTimeOutState) for vTaskInternalSetTimeOutState
    queue.o(i.xQueueGenericSend) refers to tasks.o(i.vTaskSuspendAll) for vTaskSuspendAll
    queue.o(i.xQueueGenericSend) refers to tasks.o(i.xTaskCheckForTimeOut) for xTaskCheckForTimeOut
    queue.o(i.xQueueGenericSend) refers to queue.o(i.prvIsQueueFull) for prvIsQueueFull
    queue.o(i.xQueueGenericSend) refers to tasks.o(i.vTaskPlaceOnEventList) for vTaskPlaceOnEventList
    queue.o(i.xQueueGenericSend) refers to queue.o(i.prvUnlockQueue) for prvUnlockQueue
    queue.o(i.xQueueGenericSend) refers to tasks.o(i.xTaskResumeAll) for xTaskResumeAll
    queue.o(i.xQueueGenericSendFromISR) refers to queue.o(i.prvCopyDataToQueue) for prvCopyDataToQueue
    queue.o(i.xQueueGenericSendFromISR) refers to queue.o(i.prvNotifyQueueSetContainer) for prvNotifyQueueSetContainer
    queue.o(i.xQueueGenericSendFromISR) refers to tasks.o(i.xTaskRemoveFromEventList) for xTaskRemoveFromEventList
    queue.o(i.xQueueGiveFromISR) refers to queue.o(i.prvNotifyQueueSetContainer) for prvNotifyQueueSetContainer
    queue.o(i.xQueueGiveFromISR) refers to tasks.o(i.xTaskRemoveFromEventList) for xTaskRemoveFromEventList
    queue.o(i.xQueueGiveMutexRecursive) refers to tasks.o(i.xTaskGetCurrentTaskHandle) for xTaskGetCurrentTaskHandle
    queue.o(i.xQueueGiveMutexRecursive) refers to queue.o(i.xQueueGenericSend) for xQueueGenericSend
    queue.o(i.xQueuePeek) refers to port.o(i.vPortEnterCritical) for vPortEnterCritical
    queue.o(i.xQueuePeek) refers to queue.o(i.prvCopyDataFromQueue) for prvCopyDataFromQueue
    queue.o(i.xQueuePeek) refers to tasks.o(i.xTaskRemoveFromEventList) for xTaskRemoveFromEventList
    queue.o(i.xQueuePeek) refers to port.o(i.vPortExitCritical) for vPortExitCritical
    queue.o(i.xQueuePeek) refers to tasks.o(i.vTaskInternalSetTimeOutState) for vTaskInternalSetTimeOutState
    queue.o(i.xQueuePeek) refers to tasks.o(i.vTaskSuspendAll) for vTaskSuspendAll
    queue.o(i.xQueuePeek) refers to tasks.o(i.xTaskCheckForTimeOut) for xTaskCheckForTimeOut
    queue.o(i.xQueuePeek) refers to queue.o(i.prvIsQueueEmpty) for prvIsQueueEmpty
    queue.o(i.xQueuePeek) refers to tasks.o(i.vTaskPlaceOnEventList) for vTaskPlaceOnEventList
    queue.o(i.xQueuePeek) refers to queue.o(i.prvUnlockQueue) for prvUnlockQueue
    queue.o(i.xQueuePeek) refers to tasks.o(i.xTaskResumeAll) for xTaskResumeAll
    queue.o(i.xQueuePeekFromISR) refers to queue.o(i.prvCopyDataFromQueue) for prvCopyDataFromQueue
    queue.o(i.xQueueReceive) refers to port.o(i.vPortEnterCritical) for vPortEnterCritical
    queue.o(i.xQueueReceive) refers to queue.o(i.prvCopyDataFromQueue) for prvCopyDataFromQueue
    queue.o(i.xQueueReceive) refers to tasks.o(i.xTaskRemoveFromEventList) for xTaskRemoveFromEventList
    queue.o(i.xQueueReceive) refers to port.o(i.vPortExitCritical) for vPortExitCritical
    queue.o(i.xQueueReceive) refers to tasks.o(i.vTaskInternalSetTimeOutState) for vTaskInternalSetTimeOutState
    queue.o(i.xQueueReceive) refers to tasks.o(i.vTaskSuspendAll) for vTaskSuspendAll
    queue.o(i.xQueueReceive) refers to tasks.o(i.xTaskCheckForTimeOut) for xTaskCheckForTimeOut
    queue.o(i.xQueueReceive) refers to queue.o(i.prvIsQueueEmpty) for prvIsQueueEmpty
    queue.o(i.xQueueReceive) refers to tasks.o(i.vTaskPlaceOnEventList) for vTaskPlaceOnEventList
    queue.o(i.xQueueReceive) refers to queue.o(i.prvUnlockQueue) for prvUnlockQueue
    queue.o(i.xQueueReceive) refers to tasks.o(i.xTaskResumeAll) for xTaskResumeAll
    queue.o(i.xQueueReceiveFromISR) refers to queue.o(i.prvCopyDataFromQueue) for prvCopyDataFromQueue
    queue.o(i.xQueueReceiveFromISR) refers to tasks.o(i.xTaskRemoveFromEventList) for xTaskRemoveFromEventList
    queue.o(i.xQueueRemoveFromSet) refers to port.o(i.vPortEnterCritical) for vPortEnterCritical
    queue.o(i.xQueueRemoveFromSet) refers to port.o(i.vPortExitCritical) for vPortExitCritical
    queue.o(i.xQueueSelectFromSet) refers to queue.o(i.xQueueReceive) for xQueueReceive
    queue.o(i.xQueueSelectFromSetFromISR) refers to queue.o(i.xQueueReceiveFromISR) for xQueueReceiveFromISR
    queue.o(i.xQueueSemaphoreTake) refers to port.o(i.vPortEnterCritical) for vPortEnterCritical
    queue.o(i.xQueueSemaphoreTake) refers to tasks.o(i.pvTaskIncrementMutexHeldCount) for pvTaskIncrementMutexHeldCount
    queue.o(i.xQueueSemaphoreTake) refers to tasks.o(i.xTaskRemoveFromEventList) for xTaskRemoveFromEventList
    queue.o(i.xQueueSemaphoreTake) refers to port.o(i.vPortExitCritical) for vPortExitCritical
    queue.o(i.xQueueSemaphoreTake) refers to tasks.o(i.vTaskInternalSetTimeOutState) for vTaskInternalSetTimeOutState
    queue.o(i.xQueueSemaphoreTake) refers to tasks.o(i.vTaskSuspendAll) for vTaskSuspendAll
    queue.o(i.xQueueSemaphoreTake) refers to tasks.o(i.xTaskCheckForTimeOut) for xTaskCheckForTimeOut
    queue.o(i.xQueueSemaphoreTake) refers to queue.o(i.prvIsQueueEmpty) for prvIsQueueEmpty
    queue.o(i.xQueueSemaphoreTake) refers to tasks.o(i.xTaskPriorityInherit) for xTaskPriorityInherit
    queue.o(i.xQueueSemaphoreTake) refers to tasks.o(i.vTaskPlaceOnEventList) for vTaskPlaceOnEventList
    queue.o(i.xQueueSemaphoreTake) refers to queue.o(i.prvUnlockQueue) for prvUnlockQueue
    queue.o(i.xQueueSemaphoreTake) refers to tasks.o(i.xTaskResumeAll) for xTaskResumeAll
    queue.o(i.xQueueSemaphoreTake) refers to queue.o(i.prvGetDisinheritPriorityAfterTimeout) for prvGetDisinheritPriorityAfterTimeout
    queue.o(i.xQueueSemaphoreTake) refers to tasks.o(i.vTaskPriorityDisinheritAfterTimeout) for vTaskPriorityDisinheritAfterTimeout
    queue.o(i.xQueueTakeMutexRecursive) refers to tasks.o(i.xTaskGetCurrentTaskHandle) for xTaskGetCurrentTaskHandle
    queue.o(i.xQueueTakeMutexRecursive) refers to queue.o(i.xQueueSemaphoreTake) for xQueueSemaphoreTake
    stream_buffer.o(i.prvInitialiseNewStreamBuffer) refers to memseta.o(.text) for __aeabi_memclr4
    stream_buffer.o(i.prvReadBytesFromBuffer) refers to memcpya.o(.text) for __aeabi_memcpy
    stream_buffer.o(i.prvReadMessageFromBuffer) refers to stream_buffer.o(i.prvReadBytesFromBuffer) for prvReadBytesFromBuffer
    stream_buffer.o(i.prvWriteBytesToBuffer) refers to memcpya.o(.text) for __aeabi_memcpy
    stream_buffer.o(i.prvWriteMessageToBuffer) refers to stream_buffer.o(i.prvWriteBytesToBuffer) for prvWriteBytesToBuffer
    stream_buffer.o(i.vStreamBufferDelete) refers to heap_4.o(i.vPortFree) for vPortFree
    stream_buffer.o(i.vStreamBufferDelete) refers to memseta.o(.text) for __aeabi_memclr4
    stream_buffer.o(i.xStreamBufferBytesAvailable) refers to stream_buffer.o(i.prvBytesInBuffer) for prvBytesInBuffer
    stream_buffer.o(i.xStreamBufferGenericCreate) refers to heap_4.o(i.pvPortMalloc) for pvPortMalloc
    stream_buffer.o(i.xStreamBufferGenericCreate) refers to stream_buffer.o(i.prvInitialiseNewStreamBuffer) for prvInitialiseNewStreamBuffer
    stream_buffer.o(i.xStreamBufferIsFull) refers to stream_buffer.o(i.xStreamBufferSpacesAvailable) for xStreamBufferSpacesAvailable
    stream_buffer.o(i.xStreamBufferReceive) refers to port.o(i.vPortEnterCritical) for vPortEnterCritical
    stream_buffer.o(i.xStreamBufferReceive) refers to stream_buffer.o(i.prvBytesInBuffer) for prvBytesInBuffer
    stream_buffer.o(i.xStreamBufferReceive) refers to tasks.o(i.xTaskNotifyStateClear) for xTaskNotifyStateClear
    stream_buffer.o(i.xStreamBufferReceive) refers to tasks.o(i.xTaskGetCurrentTaskHandle) for xTaskGetCurrentTaskHandle
    stream_buffer.o(i.xStreamBufferReceive) refers to port.o(i.vPortExitCritical) for vPortExitCritical
    stream_buffer.o(i.xStreamBufferReceive) refers to tasks.o(i.xTaskNotifyWait) for xTaskNotifyWait
    stream_buffer.o(i.xStreamBufferReceive) refers to stream_buffer.o(i.prvReadMessageFromBuffer) for prvReadMessageFromBuffer
    stream_buffer.o(i.xStreamBufferReceive) refers to tasks.o(i.vTaskSuspendAll) for vTaskSuspendAll
    stream_buffer.o(i.xStreamBufferReceive) refers to tasks.o(i.xTaskGenericNotify) for xTaskGenericNotify
    stream_buffer.o(i.xStreamBufferReceive) refers to tasks.o(i.xTaskResumeAll) for xTaskResumeAll
    stream_buffer.o(i.xStreamBufferReceiveCompletedFromISR) refers to tasks.o(i.xTaskGenericNotifyFromISR) for xTaskGenericNotifyFromISR
    stream_buffer.o(i.xStreamBufferReceiveFromISR) refers to stream_buffer.o(i.prvBytesInBuffer) for prvBytesInBuffer
    stream_buffer.o(i.xStreamBufferReceiveFromISR) refers to stream_buffer.o(i.prvReadMessageFromBuffer) for prvReadMessageFromBuffer
    stream_buffer.o(i.xStreamBufferReceiveFromISR) refers to tasks.o(i.xTaskGenericNotifyFromISR) for xTaskGenericNotifyFromISR
    stream_buffer.o(i.xStreamBufferReset) refers to stream_buffer.o(i.prvInitialiseNewStreamBuffer) for prvInitialiseNewStreamBuffer
    stream_buffer.o(i.xStreamBufferSend) refers to tasks.o(i.vTaskSetTimeOutState) for vTaskSetTimeOutState
    stream_buffer.o(i.xStreamBufferSend) refers to port.o(i.vPortEnterCritical) for vPortEnterCritical
    stream_buffer.o(i.xStreamBufferSend) refers to stream_buffer.o(i.xStreamBufferSpacesAvailable) for xStreamBufferSpacesAvailable
    stream_buffer.o(i.xStreamBufferSend) refers to tasks.o(i.xTaskNotifyStateClear) for xTaskNotifyStateClear
    stream_buffer.o(i.xStreamBufferSend) refers to tasks.o(i.xTaskGetCurrentTaskHandle) for xTaskGetCurrentTaskHandle
    stream_buffer.o(i.xStreamBufferSend) refers to port.o(i.vPortExitCritical) for vPortExitCritical
    stream_buffer.o(i.xStreamBufferSend) refers to tasks.o(i.xTaskNotifyWait) for xTaskNotifyWait
    stream_buffer.o(i.xStreamBufferSend) refers to tasks.o(i.xTaskCheckForTimeOut) for xTaskCheckForTimeOut
    stream_buffer.o(i.xStreamBufferSend) refers to stream_buffer.o(i.prvWriteMessageToBuffer) for prvWriteMessageToBuffer
    stream_buffer.o(i.xStreamBufferSend) refers to stream_buffer.o(i.prvBytesInBuffer) for prvBytesInBuffer
    stream_buffer.o(i.xStreamBufferSend) refers to tasks.o(i.vTaskSuspendAll) for vTaskSuspendAll
    stream_buffer.o(i.xStreamBufferSend) refers to tasks.o(i.xTaskGenericNotify) for xTaskGenericNotify
    stream_buffer.o(i.xStreamBufferSend) refers to tasks.o(i.xTaskResumeAll) for xTaskResumeAll
    stream_buffer.o(i.xStreamBufferSendCompletedFromISR) refers to tasks.o(i.xTaskGenericNotifyFromISR) for xTaskGenericNotifyFromISR
    stream_buffer.o(i.xStreamBufferSendFromISR) refers to stream_buffer.o(i.xStreamBufferSpacesAvailable) for xStreamBufferSpacesAvailable
    stream_buffer.o(i.xStreamBufferSendFromISR) refers to stream_buffer.o(i.prvWriteMessageToBuffer) for prvWriteMessageToBuffer
    stream_buffer.o(i.xStreamBufferSendFromISR) refers to stream_buffer.o(i.prvBytesInBuffer) for prvBytesInBuffer
    stream_buffer.o(i.xStreamBufferSendFromISR) refers to tasks.o(i.xTaskGenericNotifyFromISR) for xTaskGenericNotifyFromISR
    tasks.o(i.eTaskGetState) refers to port.o(i.vPortEnterCritical) for vPortEnterCritical
    tasks.o(i.eTaskGetState) refers to port.o(i.vPortExitCritical) for vPortExitCritical
    tasks.o(i.eTaskGetState) refers to tasks.o(.data) for pxCurrentTCB
    tasks.o(i.eTaskGetState) refers to tasks.o(.bss) for xSuspendedTaskList
    tasks.o(i.pcTaskGetName) refers to tasks.o(.data) for pxCurrentTCB
    tasks.o(i.prvAddCurrentTaskToDelayedList) refers to list.o(i.uxListRemove) for uxListRemove
    tasks.o(i.prvAddCurrentTaskToDelayedList) refers to list.o(i.vListInsertEnd) for vListInsertEnd
    tasks.o(i.prvAddCurrentTaskToDelayedList) refers to list.o(i.vListInsert) for vListInsert
    tasks.o(i.prvAddCurrentTaskToDelayedList) refers to tasks.o(.data) for xTickCount
    tasks.o(i.prvAddCurrentTaskToDelayedList) refers to tasks.o(.bss) for xSuspendedTaskList
    tasks.o(i.prvAddNewTaskToReadyList) refers to port.o(i.vPortEnterCritical) for vPortEnterCritical
    tasks.o(i.prvAddNewTaskToReadyList) refers to tasks.o(i.prvInitialiseTaskLists) for prvInitialiseTaskLists
    tasks.o(i.prvAddNewTaskToReadyList) refers to list.o(i.vListInsertEnd) for vListInsertEnd
    tasks.o(i.prvAddNewTaskToReadyList) refers to port.o(i.vPortExitCritical) for vPortExitCritical
    tasks.o(i.prvAddNewTaskToReadyList) refers to tasks.o(.data) for uxCurrentNumberOfTasks
    tasks.o(i.prvAddNewTaskToReadyList) refers to tasks.o(.bss) for pxReadyTasksLists
    tasks.o(i.prvCheckTasksWaitingTermination) refers to port.o(i.vPortEnterCritical) for vPortEnterCritical
    tasks.o(i.prvCheckTasksWaitingTermination) refers to list.o(i.uxListRemove) for uxListRemove
    tasks.o(i.prvCheckTasksWaitingTermination) refers to port.o(i.vPortExitCritical) for vPortExitCritical
    tasks.o(i.prvCheckTasksWaitingTermination) refers to tasks.o(i.prvDeleteTCB) for prvDeleteTCB
    tasks.o(i.prvCheckTasksWaitingTermination) refers to tasks.o(.bss) for xTasksWaitingTermination
    tasks.o(i.prvCheckTasksWaitingTermination) refers to tasks.o(.data) for uxCurrentNumberOfTasks
    tasks.o(i.prvDeleteTCB) refers to heap_4.o(i.vPortFree) for vPortFree
    tasks.o(i.prvIdleTask) refers to tasks.o(i.prvCheckTasksWaitingTermination) for prvCheckTasksWaitingTermination
    tasks.o(i.prvIdleTask) refers to tasks.o(.bss) for pxReadyTasksLists
    tasks.o(i.prvInitialiseNewTask) refers to memseta.o(.text) for __aeabi_memset
    tasks.o(i.prvInitialiseNewTask) refers to list.o(i.vListInitialiseItem) for vListInitialiseItem
    tasks.o(i.prvInitialiseNewTask) refers to port.o(i.pxPortInitialiseStack) for pxPortInitialiseStack
    tasks.o(i.prvInitialiseTaskLists) refers to list.o(i.vListInitialise) for vListInitialise
    tasks.o(i.prvInitialiseTaskLists) refers to tasks.o(.bss) for pxReadyTasksLists
    tasks.o(i.prvInitialiseTaskLists) refers to tasks.o(.data) for pxDelayedTaskList
    tasks.o(i.prvResetNextTaskUnblockTime) refers to tasks.o(.data) for pxDelayedTaskList
    tasks.o(i.prvTaskIsTaskSuspended) refers to tasks.o(.bss) for xSuspendedTaskList
    tasks.o(i.pvTaskIncrementMutexHeldCount) refers to tasks.o(.data) for pxCurrentTCB
    tasks.o(i.ulTaskNotifyTake) refers to port.o(i.vPortEnterCritical) for vPortEnterCritical
    tasks.o(i.ulTaskNotifyTake) refers to tasks.o(i.prvAddCurrentTaskToDelayedList) for prvAddCurrentTaskToDelayedList
    tasks.o(i.ulTaskNotifyTake) refers to port.o(i.vPortExitCritical) for vPortExitCritical
    tasks.o(i.ulTaskNotifyTake) refers to tasks.o(.data) for pxCurrentTCB
    tasks.o(i.uxTaskGetNumberOfTasks) refers to tasks.o(.data) for uxCurrentNumberOfTasks
    tasks.o(i.uxTaskGetStackHighWaterMark) refers to tasks.o(i.prvTaskCheckFreeStackSpace) for prvTaskCheckFreeStackSpace
    tasks.o(i.uxTaskGetStackHighWaterMark) refers to tasks.o(.data) for pxCurrentTCB
    tasks.o(i.uxTaskPriorityGet) refers to port.o(i.vPortEnterCritical) for vPortEnterCritical
    tasks.o(i.uxTaskPriorityGet) refers to port.o(i.vPortExitCritical) for vPortExitCritical
    tasks.o(i.uxTaskPriorityGet) refers to tasks.o(.data) for pxCurrentTCB
    tasks.o(i.uxTaskPriorityGetFromISR) refers to tasks.o(.data) for pxCurrentTCB
    tasks.o(i.uxTaskResetEventItemValue) refers to tasks.o(.data) for pxCurrentTCB
    tasks.o(i.vTaskDelay) refers to tasks.o(i.vTaskSuspendAll) for vTaskSuspendAll
    tasks.o(i.vTaskDelay) refers to tasks.o(i.prvAddCurrentTaskToDelayedList) for prvAddCurrentTaskToDelayedList
    tasks.o(i.vTaskDelay) refers to tasks.o(i.xTaskResumeAll) for xTaskResumeAll
    tasks.o(i.vTaskDelayUntil) refers to tasks.o(i.vTaskSuspendAll) for vTaskSuspendAll
    tasks.o(i.vTaskDelayUntil) refers to tasks.o(i.prvAddCurrentTaskToDelayedList) for prvAddCurrentTaskToDelayedList
    tasks.o(i.vTaskDelayUntil) refers to tasks.o(i.xTaskResumeAll) for xTaskResumeAll
    tasks.o(i.vTaskDelayUntil) refers to tasks.o(.data) for xTickCount
    tasks.o(i.vTaskDelete) refers to port.o(i.vPortEnterCritical) for vPortEnterCritical
    tasks.o(i.vTaskDelete) refers to list.o(i.uxListRemove) for uxListRemove
    tasks.o(i.vTaskDelete) refers to list.o(i.vListInsertEnd) for vListInsertEnd
    tasks.o(i.vTaskDelete) refers to tasks.o(i.prvDeleteTCB) for prvDeleteTCB
    tasks.o(i.vTaskDelete) refers to tasks.o(i.prvResetNextTaskUnblockTime) for prvResetNextTaskUnblockTime
    tasks.o(i.vTaskDelete) refers to port.o(i.vPortExitCritical) for vPortExitCritical
    tasks.o(i.vTaskDelete) refers to tasks.o(.data) for pxCurrentTCB
    tasks.o(i.vTaskDelete) refers to tasks.o(.bss) for pxReadyTasksLists
    tasks.o(i.vTaskEndScheduler) refers to port.o(i.vPortEndScheduler) for vPortEndScheduler
    tasks.o(i.vTaskEndScheduler) refers to tasks.o(.data) for xSchedulerRunning
    tasks.o(i.vTaskInternalSetTimeOutState) refers to tasks.o(.data) for xNumOfOverflows
    tasks.o(i.vTaskMissedYield) refers to tasks.o(.data) for xYieldPending
    tasks.o(i.vTaskNotifyGiveFromISR) refers to list.o(i.uxListRemove) for uxListRemove
    tasks.o(i.vTaskNotifyGiveFromISR) refers to list.o(i.vListInsertEnd) for vListInsertEnd
    tasks.o(i.vTaskNotifyGiveFromISR) refers to tasks.o(.data) for uxSchedulerSuspended
    tasks.o(i.vTaskNotifyGiveFromISR) refers to tasks.o(.bss) for pxReadyTasksLists
    tasks.o(i.vTaskPlaceOnEventList) refers to list.o(i.vListInsert) for vListInsert
    tasks.o(i.vTaskPlaceOnEventList) refers to tasks.o(i.prvAddCurrentTaskToDelayedList) for prvAddCurrentTaskToDelayedList
    tasks.o(i.vTaskPlaceOnEventList) refers to tasks.o(.data) for pxCurrentTCB
    tasks.o(i.vTaskPlaceOnEventListRestricted) refers to list.o(i.vListInsertEnd) for vListInsertEnd
    tasks.o(i.vTaskPlaceOnEventListRestricted) refers to tasks.o(i.prvAddCurrentTaskToDelayedList) for prvAddCurrentTaskToDelayedList
    tasks.o(i.vTaskPlaceOnEventListRestricted) refers to tasks.o(.data) for pxCurrentTCB
    tasks.o(i.vTaskPlaceOnUnorderedEventList) refers to list.o(i.vListInsertEnd) for vListInsertEnd
    tasks.o(i.vTaskPlaceOnUnorderedEventList) refers to tasks.o(i.prvAddCurrentTaskToDelayedList) for prvAddCurrentTaskToDelayedList
    tasks.o(i.vTaskPlaceOnUnorderedEventList) refers to tasks.o(.data) for pxCurrentTCB
    tasks.o(i.vTaskPriorityDisinheritAfterTimeout) refers to list.o(i.uxListRemove) for uxListRemove
    tasks.o(i.vTaskPriorityDisinheritAfterTimeout) refers to list.o(i.vListInsertEnd) for vListInsertEnd
    tasks.o(i.vTaskPriorityDisinheritAfterTimeout) refers to tasks.o(.bss) for pxReadyTasksLists
    tasks.o(i.vTaskPriorityDisinheritAfterTimeout) refers to tasks.o(.data) for uxTopReadyPriority
    tasks.o(i.vTaskPrioritySet) refers to port.o(i.vPortEnterCritical) for vPortEnterCritical
    tasks.o(i.vTaskPrioritySet) refers to list.o(i.uxListRemove) for uxListRemove
    tasks.o(i.vTaskPrioritySet) refers to list.o(i.vListInsertEnd) for vListInsertEnd
    tasks.o(i.vTaskPrioritySet) refers to port.o(i.vPortExitCritical) for vPortExitCritical
    tasks.o(i.vTaskPrioritySet) refers to tasks.o(.data) for pxCurrentTCB
    tasks.o(i.vTaskPrioritySet) refers to tasks.o(.bss) for pxReadyTasksLists
    tasks.o(i.vTaskRemoveFromUnorderedEventList) refers to list.o(i.uxListRemove) for uxListRemove
    tasks.o(i.vTaskRemoveFromUnorderedEventList) refers to list.o(i.vListInsertEnd) for vListInsertEnd
    tasks.o(i.vTaskRemoveFromUnorderedEventList) refers to tasks.o(.data) for uxTopReadyPriority
    tasks.o(i.vTaskRemoveFromUnorderedEventList) refers to tasks.o(.bss) for pxReadyTasksLists
    tasks.o(i.vTaskResume) refers to port.o(i.vPortEnterCritical) for vPortEnterCritical
    tasks.o(i.vTaskResume) refers to tasks.o(i.prvTaskIsTaskSuspended) for prvTaskIsTaskSuspended
    tasks.o(i.vTaskResume) refers to list.o(i.uxListRemove) for uxListRemove
    tasks.o(i.vTaskResume) refers to list.o(i.vListInsertEnd) for vListInsertEnd
    tasks.o(i.vTaskResume) refers to port.o(i.vPortExitCritical) for vPortExitCritical
    tasks.o(i.vTaskResume) refers to tasks.o(.data) for pxCurrentTCB
    tasks.o(i.vTaskResume) refers to tasks.o(.bss) for pxReadyTasksLists
    tasks.o(i.vTaskSetTimeOutState) refers to port.o(i.vPortEnterCritical) for vPortEnterCritical
    tasks.o(i.vTaskSetTimeOutState) refers to port.o(i.vPortExitCritical) for vPortExitCritical
    tasks.o(i.vTaskSetTimeOutState) refers to tasks.o(.data) for xNumOfOverflows
    tasks.o(i.vTaskStartScheduler) refers to tasks.o(i.xTaskCreate) for xTaskCreate
    tasks.o(i.vTaskStartScheduler) refers to timers.o(i.xTimerCreateTimerTask) for xTimerCreateTimerTask
    tasks.o(i.vTaskStartScheduler) refers to timer.o(i.ConfigureTimeForRunTimeStats) for ConfigureTimeForRunTimeStats
    tasks.o(i.vTaskStartScheduler) refers to port.o(i.xPortStartScheduler) for xPortStartScheduler
    tasks.o(i.vTaskStartScheduler) refers to tasks.o(.data) for xIdleTaskHandle
    tasks.o(i.vTaskStartScheduler) refers to tasks.o(i.prvIdleTask) for prvIdleTask
    tasks.o(i.vTaskSuspend) refers to port.o(i.vPortEnterCritical) for vPortEnterCritical
    tasks.o(i.vTaskSuspend) refers to list.o(i.uxListRemove) for uxListRemove
    tasks.o(i.vTaskSuspend) refers to list.o(i.vListInsertEnd) for vListInsertEnd
    tasks.o(i.vTaskSuspend) refers to port.o(i.vPortExitCritical) for vPortExitCritical
    tasks.o(i.vTaskSuspend) refers to tasks.o(i.prvResetNextTaskUnblockTime) for prvResetNextTaskUnblockTime
    tasks.o(i.vTaskSuspend) refers to tasks.o(i.vTaskSwitchContext) for vTaskSwitchContext
    tasks.o(i.vTaskSuspend) refers to tasks.o(.data) for pxCurrentTCB
    tasks.o(i.vTaskSuspend) refers to tasks.o(.bss) for pxReadyTasksLists
    tasks.o(i.vTaskSuspendAll) refers to tasks.o(.data) for uxSchedulerSuspended
    tasks.o(i.vTaskSwitchContext) refers to tasks.o(.data) for uxSchedulerSuspended
    tasks.o(i.vTaskSwitchContext) refers to timer.o(.data) for FreeRTOSRunTimeTicks
    tasks.o(i.vTaskSwitchContext) refers to tasks.o(.bss) for pxReadyTasksLists
    tasks.o(i.xTaskCheckForTimeOut) refers to port.o(i.vPortEnterCritical) for vPortEnterCritical
    tasks.o(i.xTaskCheckForTimeOut) refers to tasks.o(i.vTaskInternalSetTimeOutState) for vTaskInternalSetTimeOutState
    tasks.o(i.xTaskCheckForTimeOut) refers to port.o(i.vPortExitCritical) for vPortExitCritical
    tasks.o(i.xTaskCheckForTimeOut) refers to tasks.o(.data) for xTickCount
    tasks.o(i.xTaskCreate) refers to heap_4.o(i.pvPortMalloc) for pvPortMalloc
    tasks.o(i.xTaskCreate) refers to heap_4.o(i.vPortFree) for vPortFree
    tasks.o(i.xTaskCreate) refers to tasks.o(i.prvInitialiseNewTask) for prvInitialiseNewTask
    tasks.o(i.xTaskCreate) refers to tasks.o(i.prvAddNewTaskToReadyList) for prvAddNewTaskToReadyList
    tasks.o(i.xTaskGenericNotify) refers to port.o(i.vPortEnterCritical) for vPortEnterCritical
    tasks.o(i.xTaskGenericNotify) refers to list.o(i.uxListRemove) for uxListRemove
    tasks.o(i.xTaskGenericNotify) refers to list.o(i.vListInsertEnd) for vListInsertEnd
    tasks.o(i.xTaskGenericNotify) refers to port.o(i.vPortExitCritical) for vPortExitCritical
    tasks.o(i.xTaskGenericNotify) refers to tasks.o(.data) for uxTopReadyPriority
    tasks.o(i.xTaskGenericNotify) refers to tasks.o(.bss) for pxReadyTasksLists
    tasks.o(i.xTaskGenericNotifyFromISR) refers to list.o(i.uxListRemove) for uxListRemove
    tasks.o(i.xTaskGenericNotifyFromISR) refers to list.o(i.vListInsertEnd) for vListInsertEnd
    tasks.o(i.xTaskGenericNotifyFromISR) refers to tasks.o(.data) for uxSchedulerSuspended
    tasks.o(i.xTaskGenericNotifyFromISR) refers to tasks.o(.bss) for pxReadyTasksLists
    tasks.o(i.xTaskGetCurrentTaskHandle) refers to tasks.o(.data) for pxCurrentTCB
    tasks.o(i.xTaskGetSchedulerState) refers to tasks.o(.data) for xSchedulerRunning
    tasks.o(i.xTaskGetTickCount) refers to tasks.o(.data) for xTickCount
    tasks.o(i.xTaskGetTickCountFromISR) refers to tasks.o(.data) for xTickCount
    tasks.o(i.xTaskIncrementTick) refers to tasks.o(i.prvResetNextTaskUnblockTime) for prvResetNextTaskUnblockTime
    tasks.o(i.xTaskIncrementTick) refers to list.o(i.uxListRemove) for uxListRemove
    tasks.o(i.xTaskIncrementTick) refers to list.o(i.vListInsertEnd) for vListInsertEnd
    tasks.o(i.xTaskIncrementTick) refers to tasks.o(.data) for uxSchedulerSuspended
    tasks.o(i.xTaskIncrementTick) refers to tasks.o(.bss) for pxReadyTasksLists
    tasks.o(i.xTaskNotifyStateClear) refers to port.o(i.vPortEnterCritical) for vPortEnterCritical
    tasks.o(i.xTaskNotifyStateClear) refers to port.o(i.vPortExitCritical) for vPortExitCritical
    tasks.o(i.xTaskNotifyStateClear) refers to tasks.o(.data) for pxCurrentTCB
    tasks.o(i.xTaskNotifyWait) refers to port.o(i.vPortEnterCritical) for vPortEnterCritical
    tasks.o(i.xTaskNotifyWait) refers to tasks.o(i.prvAddCurrentTaskToDelayedList) for prvAddCurrentTaskToDelayedList
    tasks.o(i.xTaskNotifyWait) refers to port.o(i.vPortExitCritical) for vPortExitCritical
    tasks.o(i.xTaskNotifyWait) refers to tasks.o(.data) for pxCurrentTCB
    tasks.o(i.xTaskPriorityDisinherit) refers to list.o(i.uxListRemove) for uxListRemove
    tasks.o(i.xTaskPriorityDisinherit) refers to list.o(i.vListInsertEnd) for vListInsertEnd
    tasks.o(i.xTaskPriorityDisinherit) refers to tasks.o(.bss) for pxReadyTasksLists
    tasks.o(i.xTaskPriorityDisinherit) refers to tasks.o(.data) for uxTopReadyPriority
    tasks.o(i.xTaskPriorityInherit) refers to list.o(i.uxListRemove) for uxListRemove
    tasks.o(i.xTaskPriorityInherit) refers to list.o(i.vListInsertEnd) for vListInsertEnd
    tasks.o(i.xTaskPriorityInherit) refers to tasks.o(.data) for pxCurrentTCB
    tasks.o(i.xTaskPriorityInherit) refers to tasks.o(.bss) for pxReadyTasksLists
    tasks.o(i.xTaskRemoveFromEventList) refers to list.o(i.uxListRemove) for uxListRemove
    tasks.o(i.xTaskRemoveFromEventList) refers to list.o(i.vListInsertEnd) for vListInsertEnd
    tasks.o(i.xTaskRemoveFromEventList) refers to tasks.o(.data) for uxSchedulerSuspended
    tasks.o(i.xTaskRemoveFromEventList) refers to tasks.o(.bss) for pxReadyTasksLists
    tasks.o(i.xTaskResumeAll) refers to port.o(i.vPortEnterCritical) for vPortEnterCritical
    tasks.o(i.xTaskResumeAll) refers to list.o(i.uxListRemove) for uxListRemove
    tasks.o(i.xTaskResumeAll) refers to list.o(i.vListInsertEnd) for vListInsertEnd
    tasks.o(i.xTaskResumeAll) refers to tasks.o(i.prvResetNextTaskUnblockTime) for prvResetNextTaskUnblockTime
    tasks.o(i.xTaskResumeAll) refers to tasks.o(i.xTaskIncrementTick) for xTaskIncrementTick
    tasks.o(i.xTaskResumeAll) refers to port.o(i.vPortExitCritical) for vPortExitCritical
    tasks.o(i.xTaskResumeAll) refers to tasks.o(.data) for uxSchedulerSuspended
    tasks.o(i.xTaskResumeAll) refers to tasks.o(.bss) for xPendingReadyList
    tasks.o(i.xTaskResumeFromISR) refers to tasks.o(i.prvTaskIsTaskSuspended) for prvTaskIsTaskSuspended
    tasks.o(i.xTaskResumeFromISR) refers to list.o(i.uxListRemove) for uxListRemove
    tasks.o(i.xTaskResumeFromISR) refers to list.o(i.vListInsertEnd) for vListInsertEnd
    tasks.o(i.xTaskResumeFromISR) refers to tasks.o(.data) for uxSchedulerSuspended
    tasks.o(i.xTaskResumeFromISR) refers to tasks.o(.bss) for pxReadyTasksLists
    timers.o(i.prvCheckForValidListAndQueue) refers to port.o(i.vPortEnterCritical) for vPortEnterCritical
    timers.o(i.prvCheckForValidListAndQueue) refers to list.o(i.vListInitialise) for vListInitialise
    timers.o(i.prvCheckForValidListAndQueue) refers to queue.o(i.xQueueGenericCreate) for xQueueGenericCreate
    timers.o(i.prvCheckForValidListAndQueue) refers to queue.o(i.vQueueAddToRegistry) for vQueueAddToRegistry
    timers.o(i.prvCheckForValidListAndQueue) refers to port.o(i.vPortExitCritical) for vPortExitCritical
    timers.o(i.prvCheckForValidListAndQueue) refers to timers.o(.data) for xTimerQueue
    timers.o(i.prvCheckForValidListAndQueue) refers to timers.o(.bss) for xActiveTimerList1
    timers.o(i.prvGetNextExpireTime) refers to timers.o(.data) for pxCurrentTimerList
    timers.o(i.prvInitialiseNewTimer) refers to timers.o(i.prvCheckForValidListAndQueue) for prvCheckForValidListAndQueue
    timers.o(i.prvInitialiseNewTimer) refers to list.o(i.vListInitialiseItem) for vListInitialiseItem
    timers.o(i.prvInsertTimerInActiveList) refers to list.o(i.vListInsert) for vListInsert
    timers.o(i.prvInsertTimerInActiveList) refers to timers.o(.data) for pxOverflowTimerList
    timers.o(i.prvProcessExpiredTimer) refers to list.o(i.uxListRemove) for uxListRemove
    timers.o(i.prvProcessExpiredTimer) refers to timers.o(i.prvInsertTimerInActiveList) for prvInsertTimerInActiveList
    timers.o(i.prvProcessExpiredTimer) refers to timers.o(i.xTimerGenericCommand) for xTimerGenericCommand
    timers.o(i.prvProcessExpiredTimer) refers to timers.o(.data) for pxCurrentTimerList
    timers.o(i.prvProcessReceivedCommands) refers to list.o(i.uxListRemove) for uxListRemove
    timers.o(i.prvProcessReceivedCommands) refers to timers.o(i.prvSampleTimeNow) for prvSampleTimeNow
    timers.o(i.prvProcessReceivedCommands) refers to timers.o(i.prvInsertTimerInActiveList) for prvInsertTimerInActiveList
    timers.o(i.prvProcessReceivedCommands) refers to timers.o(i.xTimerGenericCommand) for xTimerGenericCommand
    timers.o(i.prvProcessReceivedCommands) refers to heap_4.o(i.vPortFree) for vPortFree
    timers.o(i.prvProcessReceivedCommands) refers to queue.o(i.xQueueReceive) for xQueueReceive
    timers.o(i.prvProcessReceivedCommands) refers to timers.o(.data) for xTimerQueue
    timers.o(i.prvProcessTimerOrBlockTask) refers to tasks.o(i.vTaskSuspendAll) for vTaskSuspendAll
    timers.o(i.prvProcessTimerOrBlockTask) refers to timers.o(i.prvSampleTimeNow) for prvSampleTimeNow
    timers.o(i.prvProcessTimerOrBlockTask) refers to tasks.o(i.xTaskResumeAll) for xTaskResumeAll
    timers.o(i.prvProcessTimerOrBlockTask) refers to timers.o(i.prvProcessExpiredTimer) for prvProcessExpiredTimer
    timers.o(i.prvProcessTimerOrBlockTask) refers to queue.o(i.vQueueWaitForMessageRestricted) for vQueueWaitForMessageRestricted
    timers.o(i.prvProcessTimerOrBlockTask) refers to timers.o(.data) for pxOverflowTimerList
    timers.o(i.prvSampleTimeNow) refers to tasks.o(i.xTaskGetTickCount) for xTaskGetTickCount
    timers.o(i.prvSampleTimeNow) refers to timers.o(i.prvSwitchTimerLists) for prvSwitchTimerLists
    timers.o(i.prvSampleTimeNow) refers to timers.o(.data) for xLastTime
    timers.o(i.prvSwitchTimerLists) refers to list.o(i.uxListRemove) for uxListRemove
    timers.o(i.prvSwitchTimerLists) refers to list.o(i.vListInsert) for vListInsert
    timers.o(i.prvSwitchTimerLists) refers to timers.o(i.xTimerGenericCommand) for xTimerGenericCommand
    timers.o(i.prvSwitchTimerLists) refers to timers.o(.data) for pxCurrentTimerList
    timers.o(i.prvTimerTask) refers to timers.o(i.prvGetNextExpireTime) for prvGetNextExpireTime
    timers.o(i.prvTimerTask) refers to timers.o(i.prvProcessTimerOrBlockTask) for prvProcessTimerOrBlockTask
    timers.o(i.prvTimerTask) refers to timers.o(i.prvProcessReceivedCommands) for prvProcessReceivedCommands
    timers.o(i.pvTimerGetTimerID) refers to port.o(i.vPortEnterCritical) for vPortEnterCritical
    timers.o(i.pvTimerGetTimerID) refers to port.o(i.vPortExitCritical) for vPortExitCritical
    timers.o(i.vTimerSetTimerID) refers to port.o(i.vPortEnterCritical) for vPortEnterCritical
    timers.o(i.vTimerSetTimerID) refers to port.o(i.vPortExitCritical) for vPortExitCritical
    timers.o(i.xTimerCreate) refers to heap_4.o(i.pvPortMalloc) for pvPortMalloc
    timers.o(i.xTimerCreate) refers to timers.o(i.prvInitialiseNewTimer) for prvInitialiseNewTimer
    timers.o(i.xTimerCreateTimerTask) refers to timers.o(i.prvCheckForValidListAndQueue) for prvCheckForValidListAndQueue
    timers.o(i.xTimerCreateTimerTask) refers to tasks.o(i.xTaskCreate) for xTaskCreate
    timers.o(i.xTimerCreateTimerTask) refers to timers.o(.data) for xTimerQueue
    timers.o(i.xTimerCreateTimerTask) refers to timers.o(i.prvTimerTask) for prvTimerTask
    timers.o(i.xTimerGenericCommand) refers to tasks.o(i.xTaskGetSchedulerState) for xTaskGetSchedulerState
    timers.o(i.xTimerGenericCommand) refers to queue.o(i.xQueueGenericSend) for xQueueGenericSend
    timers.o(i.xTimerGenericCommand) refers to queue.o(i.xQueueGenericSendFromISR) for xQueueGenericSendFromISR
    timers.o(i.xTimerGenericCommand) refers to timers.o(.data) for xTimerQueue
    timers.o(i.xTimerGetTimerDaemonTaskHandle) refers to timers.o(.data) for xTimerTaskHandle
    timers.o(i.xTimerIsTimerActive) refers to port.o(i.vPortEnterCritical) for vPortEnterCritical
    timers.o(i.xTimerIsTimerActive) refers to port.o(i.vPortExitCritical) for vPortExitCritical
    timers.o(i.xTimerPendFunctionCall) refers to queue.o(i.xQueueGenericSend) for xQueueGenericSend
    timers.o(i.xTimerPendFunctionCall) refers to timers.o(.data) for xTimerQueue
    timers.o(i.xTimerPendFunctionCallFromISR) refers to queue.o(i.xQueueGenericSendFromISR) for xQueueGenericSendFromISR
    timers.o(i.xTimerPendFunctionCallFromISR) refers to timers.o(.data) for xTimerQueue
    heap_4.o(i.prvHeapInit) refers to heap_4.o(.bss) for ucHeap
    heap_4.o(i.prvHeapInit) refers to heap_4.o(.data) for xStart
    heap_4.o(i.prvInsertBlockIntoFreeList) refers to heap_4.o(.data) for xStart
    heap_4.o(i.pvPortMalloc) refers to tasks.o(i.vTaskSuspendAll) for vTaskSuspendAll
    heap_4.o(i.pvPortMalloc) refers to heap_4.o(i.prvHeapInit) for prvHeapInit
    heap_4.o(i.pvPortMalloc) refers to heap_4.o(i.prvInsertBlockIntoFreeList) for prvInsertBlockIntoFreeList
    heap_4.o(i.pvPortMalloc) refers to tasks.o(i.xTaskResumeAll) for xTaskResumeAll
    heap_4.o(i.pvPortMalloc) refers to heap_4.o(.data) for pxEnd
    heap_4.o(i.vPortFree) refers to tasks.o(i.vTaskSuspendAll) for vTaskSuspendAll
    heap_4.o(i.vPortFree) refers to heap_4.o(i.prvInsertBlockIntoFreeList) for prvInsertBlockIntoFreeList
    heap_4.o(i.vPortFree) refers to tasks.o(i.xTaskResumeAll) for xTaskResumeAll
    heap_4.o(i.vPortFree) refers to heap_4.o(.data) for xBlockAllocatedBit
    heap_4.o(i.xPortGetFreeHeapSize) refers to heap_4.o(.data) for xFreeBytesRemaining
    heap_4.o(i.xPortGetMinimumEverFreeHeapSize) refers to heap_4.o(.data) for xMinimumEverFreeBytesRemaining
    port.o(.emb_text) refers to tasks.o(i.vTaskSwitchContext) for vTaskSwitchContext
    port.o(.emb_text) refers to tasks.o(.data) for pxCurrentTCB
    port.o(i.pxPortInitialiseStack) refers to port.o(i.prvTaskExitError) for prvTaskExitError
    port.o(i.vPortEnterCritical) refers to port.o(.data) for uxCriticalNesting
    port.o(i.vPortExitCritical) refers to port.o(.data) for uxCriticalNesting
    port.o(i.xPortStartScheduler) refers to port.o(i.vPortSetupTimerInterrupt) for vPortSetupTimerInterrupt
    port.o(i.xPortStartScheduler) refers to port.o(.emb_text) for __asm___6_port_c_39a90d8d__prvStartFirstTask
    port.o(i.xPortStartScheduler) refers to port.o(.data) for uxCriticalNesting
    port.o(i.xPortSysTickHandler) refers to tasks.o(i.xTaskIncrementTick) for xTaskIncrementTick
    delay.o(i.SysTick_Handler) refers to tasks.o(i.xTaskGetSchedulerState) for xTaskGetSchedulerState
    delay.o(i.SysTick_Handler) refers to port.o(i.xPortSysTickHandler) for xPortSysTickHandler
    delay.o(i.delay_init) refers to misc.o(i.SysTick_CLKSourceConfig) for SysTick_CLKSourceConfig
    delay.o(i.delay_init) refers to system_stm32f10x.o(.data) for SystemCoreClock
    delay.o(i.delay_init) refers to delay.o(.data) for fac_us
    delay.o(i.delay_ms) refers to tasks.o(i.xTaskGetSchedulerState) for xTaskGetSchedulerState
    delay.o(i.delay_ms) refers to tasks.o(i.vTaskDelay) for vTaskDelay
    delay.o(i.delay_ms) refers to delay.o(i.delay_us) for delay_us
    delay.o(i.delay_us) refers to delay.o(.data) for fac_us
    delay.o(i.delay_xms) refers to delay.o(i.delay_us) for delay_us
    usart.o(i.USART1_IRQHandler) refers to stm32f10x_usart.o(i.USART_GetITStatus) for USART_GetITStatus
    usart.o(i.USART1_IRQHandler) refers to stm32f10x_usart.o(i.USART_ReceiveData) for USART_ReceiveData
    usart.o(i.USART1_IRQHandler) refers to stm32f10x_usart.o(i.USART_ClearFlag) for USART_ClearFlag
    usart.o(i.USART1_IRQHandler) refers to stm32f10x_usart.o(i.USART_SendData) for USART_SendData
    usart.o(i.USART1_IRQHandler) refers to stm32f10x_usart.o(i.USART_GetFlagStatus) for USART_GetFlagStatus
    usart.o(i.USART1_IRQHandler) refers to memseta.o(.text) for __aeabi_memclr
    usart.o(i.USART1_IRQHandler) refers to common.o(i._CMIOT_Str_EndWith) for _CMIOT_Str_EndWith
    usart.o(i.USART1_IRQHandler) refers to tasks.o(i.vTaskNotifyGiveFromISR) for vTaskNotifyGiveFromISR
    usart.o(i.USART1_IRQHandler) refers to usart.o(.data) for BLE_DEBUG_FLAG
    usart.o(i.USART1_IRQHandler) refers to bluetooth.o(.data) for UART_BLE_RxBufferLen
    usart.o(i.USART1_IRQHandler) refers to bluetooth.o(.bss) for UART_BLE_RxBuffer
    usart.o(i.USART1_IRQHandler) refers to main.o(.data) for menuPosition
    usart.o(i.USART2_IRQHandler) refers to stm32f10x_usart.o(i.USART_GetITStatus) for USART_GetITStatus
    usart.o(i.USART2_IRQHandler) refers to stm32f10x_usart.o(i.USART_ReceiveData) for USART_ReceiveData
    usart.o(i.USART2_IRQHandler) refers to stm32f10x_usart.o(i.USART_SendData) for USART_SendData
    usart.o(i.USART2_IRQHandler) refers to tasks.o(i.vTaskNotifyGiveFromISR) for vTaskNotifyGiveFromISR
    usart.o(i.USART2_IRQHandler) refers to main.o(.data) for cli_task
    usart.o(i.USART2_IRQHandler) refers to main.o(.bss) for UART_CLI_RxBuffer
    usart.o(i.USART3_IRQHandler) refers to stm32f10x_usart.o(i.USART_GetITStatus) for USART_GetITStatus
    usart.o(i.USART3_IRQHandler) refers to stm32f10x_usart.o(i.USART_ReceiveData) for USART_ReceiveData
    usart.o(i.USART3_IRQHandler) refers to stm32f10x_usart.o(i.USART_ClearFlag) for USART_ClearFlag
    usart.o(i.USART3_IRQHandler) refers to stm32f10x_usart.o(i.USART_SendData) for USART_SendData
    usart.o(i.USART3_IRQHandler) refers to stm32f10x_usart.o(i.USART_GetFlagStatus) for USART_GetFlagStatus
    usart.o(i.USART3_IRQHandler) refers to common.o(i._CMIOT_Debug) for _CMIOT_Debug
    usart.o(i.USART3_IRQHandler) refers to tasks.o(i.xTaskGetTickCountFromISR) for xTaskGetTickCountFromISR
    usart.o(i.USART3_IRQHandler) refers to timers.o(i.xTimerGenericCommand) for xTimerGenericCommand
    usart.o(i.USART3_IRQHandler) refers to usart.o(.data) for NB_DEBUG_FLAG
    usart.o(i.USART3_IRQHandler) refers to m5310.o(.data) for UART_M5310_RxBufferLen
    usart.o(i.USART3_IRQHandler) refers to m5310.o(.bss) for UART_M5310_RxBuffer
    usart.o(i.USART3_IRQHandler) refers to bluetooth.o(.data) for BLE_AT_EXE_FLAG
    usart.o(i.USART3_IRQHandler) refers to main.o(.data) for menuPosition
    usart.o(i._CMIOT_Uart_Init) refers to stm32f10x_usart.o(i.USART_DeInit) for USART_DeInit
    usart.o(i._CMIOT_Uart_Init) refers to stm32f10x_rcc.o(i.RCC_APB2PeriphClockCmd) for RCC_APB2PeriphClockCmd
    usart.o(i._CMIOT_Uart_Init) refers to stm32f10x_gpio.o(i.GPIO_Init) for GPIO_Init
    usart.o(i._CMIOT_Uart_Init) refers to stm32f10x_usart.o(i.USART_Init) for USART_Init
    usart.o(i._CMIOT_Uart_Init) refers to stm32f10x_usart.o(i.USART_Cmd) for USART_Cmd
    usart.o(i._CMIOT_Uart_Init) refers to misc.o(i.NVIC_Init) for NVIC_Init
    usart.o(i._CMIOT_Uart_Init) refers to stm32f10x_usart.o(i.USART_ITConfig) for USART_ITConfig
    usart.o(i._CMIOT_Uart_Init) refers to stm32f10x_rcc.o(i.RCC_APB1PeriphClockCmd) for RCC_APB1PeriphClockCmd
    usart.o(i._CMIOT_Uart_send) refers to port.o(i.vPortEnterCritical) for vPortEnterCritical
    usart.o(i._CMIOT_Uart_send) refers to stm32f10x_usart.o(i.USART_ClearFlag) for USART_ClearFlag
    usart.o(i._CMIOT_Uart_send) refers to stm32f10x_usart.o(i.USART_SendData) for USART_SendData
    usart.o(i._CMIOT_Uart_send) refers to stm32f10x_usart.o(i.USART_GetFlagStatus) for USART_GetFlagStatus
    usart.o(i._CMIOT_Uart_send) refers to port.o(i.vPortExitCritical) for vPortExitCritical
    timer.o(i.ConfigureTimeForRunTimeStats) refers to timer.o(i.TIM3_Int_Init) for TIM3_Int_Init
    timer.o(i.ConfigureTimeForRunTimeStats) refers to timer.o(.data) for FreeRTOSRunTimeTicks
    timer.o(i.TIM3_IRQHandler) refers to stm32f10x_tim.o(i.TIM_GetITStatus) for TIM_GetITStatus
    timer.o(i.TIM3_IRQHandler) refers to stm32f10x_tim.o(i.TIM_ClearITPendingBit) for TIM_ClearITPendingBit
    timer.o(i.TIM3_IRQHandler) refers to timer.o(.data) for FreeRTOSRunTimeTicks
    timer.o(i.TIM3_Int_Init) refers to stm32f10x_rcc.o(i.RCC_APB1PeriphClockCmd) for RCC_APB1PeriphClockCmd
    timer.o(i.TIM3_Int_Init) refers to stm32f10x_tim.o(i.TIM_TimeBaseInit) for TIM_TimeBaseInit
    timer.o(i.TIM3_Int_Init) refers to stm32f10x_tim.o(i.TIM_ITConfig) for TIM_ITConfig
    timer.o(i.TIM3_Int_Init) refers to misc.o(i.NVIC_Init) for NVIC_Init
    timer.o(i.TIM3_Int_Init) refers to stm32f10x_tim.o(i.TIM_Cmd) for TIM_Cmd
    common.o(i._CMIOT_Debug) refers to memseta.o(.text) for __aeabi_memclr4
    common.o(i._CMIOT_Debug) refers to printfa.o(i.__0vsnprintf) for __c89vsnprintf
    common.o(i._CMIOT_Debug) refers to strlen.o(.text) for strlen
    common.o(i._CMIOT_Debug) refers to usart.o(i._CMIOT_Uart_send) for _CMIOT_Uart_send
    common.o(i._CMIOT_Debug) refers to common.o(.data) for DEBUG_FLAG
    common.o(i._CMIOT_Str_EndWith) refers to strlen.o(.text) for strlen
    common.o(i._CMIOT_Str_EndWith) refers to strncmp.o(.text) for strncmp
    common.o(i._CMIOT_Str_StartWith) refers to strlen.o(.text) for strlen
    common.o(i._CMIOT_Str_StartWith) refers to strncmp.o(.text) for strncmp
    common.o(i.cm_getbuildVersion) refers to strlen.o(.text) for strlen
    common.o(i.cm_getbuildVersion) refers to printfa.o(i.__0snprintf) for __2snprintf
    common.o(i.cm_split) refers to strtok.o(.text) for strtok
    common.o(i.cm_split) refers to strncpy.o(.text) for strncpy
    common.o(i.cm_split) refers to strcat.o(.text) for strcat
    freertos_cli.o(i.FreeRTOS_CLIGetOutputBuffer) refers to freertos_cli.o(.bss) for cOutputBuffer
    freertos_cli.o(i.FreeRTOS_CLIProcessCommand) refers to strlen.o(.text) for strlen
    freertos_cli.o(i.FreeRTOS_CLIProcessCommand) refers to strncmp.o(.text) for strncmp
    freertos_cli.o(i.FreeRTOS_CLIProcessCommand) refers to freertos_cli.o(i.prvGetNumberOfParameters) for prvGetNumberOfParameters
    freertos_cli.o(i.FreeRTOS_CLIProcessCommand) refers to strncpy.o(.text) for strncpy
    freertos_cli.o(i.FreeRTOS_CLIProcessCommand) refers to freertos_cli.o(.data) for pxCommand
    freertos_cli.o(i.FreeRTOS_CLIProcessCommand) refers to freertos_cli.o(.conststring) for .conststring
    freertos_cli.o(i.FreeRTOS_CLIRegisterCommand) refers to heap_4.o(i.pvPortMalloc) for pvPortMalloc
    freertos_cli.o(i.FreeRTOS_CLIRegisterCommand) refers to port.o(i.vPortEnterCritical) for vPortEnterCritical
    freertos_cli.o(i.FreeRTOS_CLIRegisterCommand) refers to port.o(i.vPortExitCritical) for vPortExitCritical
    freertos_cli.o(i.FreeRTOS_CLIRegisterCommand) refers to freertos_cli.o(.data) for pxLastCommandInList
    freertos_cli.o(i.prvHelpCommand) refers to strncpy.o(.text) for strncpy
    freertos_cli.o(i.prvHelpCommand) refers to freertos_cli.o(.data) for pxCommand
    freertos_cli.o(.constdata) refers to freertos_cli.o(.conststring) for .conststring
    freertos_cli.o(.constdata) refers to freertos_cli.o(i.prvHelpCommand) for prvHelpCommand
    freertos_cli.o(.data) refers to freertos_cli.o(.constdata) for xHelpCommand
    user_cli.o(i._CMIOT_CLI_Init) refers to freertos_cli.o(i.FreeRTOS_CLIRegisterCommand) for FreeRTOS_CLIRegisterCommand
    user_cli.o(i._CMIOT_CLI_Init) refers to user_cli.o(.data) for CliCommandList
    user_cli.o(i.prvDebugLevelCommand) refers to freertos_cli.o(i.FreeRTOS_CLIGetParameter) for FreeRTOS_CLIGetParameter
    user_cli.o(i.prvDebugLevelCommand) refers to strncpy.o(.text) for strncpy
    user_cli.o(i.prvDebugLevelCommand) refers to common.o(i._CMIOT_atoi) for _CMIOT_atoi
    user_cli.o(i.prvDebugLevelCommand) refers to strncat.o(.text) for strncat
    user_cli.o(i.prvDebugLevelCommand) refers to common.o(.data) for DEBUG_FLAG
    user_cli.o(i.prvEnableBleDebugModeCommand) refers to freertos_cli.o(i.FreeRTOS_CLIGetParameter) for FreeRTOS_CLIGetParameter
    user_cli.o(i.prvEnableBleDebugModeCommand) refers to strncpy.o(.text) for strncpy
    user_cli.o(i.prvEnableBleDebugModeCommand) refers to common.o(i._CMIOT_atoi) for _CMIOT_atoi
    user_cli.o(i.prvEnableBleDebugModeCommand) refers to strncat.o(.text) for strncat
    user_cli.o(i.prvEnableBleDebugModeCommand) refers to usart.o(.data) for BLE_DEBUG_FLAG
    user_cli.o(i.prvEnableNbDebugModeCommand) refers to freertos_cli.o(i.FreeRTOS_CLIGetParameter) for FreeRTOS_CLIGetParameter
    user_cli.o(i.prvEnableNbDebugModeCommand) refers to strncpy.o(.text) for strncpy
    user_cli.o(i.prvEnableNbDebugModeCommand) refers to common.o(i._CMIOT_atoi) for _CMIOT_atoi
    user_cli.o(i.prvEnableNbDebugModeCommand) refers to strncat.o(.text) for strncat
    user_cli.o(i.prvEnableNbDebugModeCommand) refers to usart.o(.data) for NB_DEBUG_FLAG
    user_cli.o(i.prvGetHeapUsageCommand) refers to heap_4.o(i.pvPortMalloc) for pvPortMalloc
    user_cli.o(i.prvGetHeapUsageCommand) refers to heap_4.o(i.xPortGetFreeHeapSize) for xPortGetFreeHeapSize
    user_cli.o(i.prvGetHeapUsageCommand) refers to printfa.o(i.__0sprintf) for __2sprintf
    user_cli.o(i.prvGetHeapUsageCommand) refers to strlen.o(.text) for strlen
    user_cli.o(i.prvGetHeapUsageCommand) refers to strncat.o(.text) for strncat
    user_cli.o(i.prvGetHeapUsageCommand) refers to tasks.o(i.uxTaskGetStackHighWaterMark) for uxTaskGetStackHighWaterMark
    user_cli.o(i.prvGetHeapUsageCommand) refers to heap_4.o(i.vPortFree) for vPortFree
    user_cli.o(i.prvGetHeapUsageCommand) refers to main.o(.data) for cli_task
    user_cli.o(i.prvGetSysTimeCommand) refers to heap_4.o(i.pvPortMalloc) for pvPortMalloc
    user_cli.o(i.prvGetSysTimeCommand) refers to printfa.o(i.__0sprintf) for __2sprintf
    user_cli.o(i.prvGetSysTimeCommand) refers to strncpy.o(.text) for strncpy
    user_cli.o(i.prvGetSysTimeCommand) refers to heap_4.o(i.vPortFree) for vPortFree
    user_cli.o(i.prvGetSysTimeCommand) refers to timer.o(.data) for FreeRTOSRunTimeTicks
    user_cli.o(i.prvGetWechatHistoryDataCommand) refers to freertos_cli.o(i.FreeRTOS_CLIGetParameter) for FreeRTOS_CLIGetParameter
    user_cli.o(i.prvGetWechatHistoryDataCommand) refers to strncpy.o(.text) for strncpy
    user_cli.o(i.prvGetWechatHistoryDataCommand) refers to usart.o(i._CMIOT_Uart_send) for _CMIOT_Uart_send
    user_cli.o(i.prvGetWechatHistoryDataCommand) refers to strlen.o(.text) for strlen
    user_cli.o(i.prvGetWechatHistoryDataCommand) refers to main.o(.data) for menuPosition
    user_cli.o(i.prvGetWechatHistoryListCommand) refers to usart.o(i._CMIOT_Uart_send) for _CMIOT_Uart_send
    user_cli.o(i.prvGetWechatHistoryListCommand) refers to strncpy.o(.text) for strncpy
    user_cli.o(i.prvGetWechatHistoryListCommand) refers to main.o(.data) for menuPosition
    user_cli.o(i.prvSendAt2BleModuleCommand) refers to freertos_cli.o(i.FreeRTOS_CLIGetParameter) for FreeRTOS_CLIGetParameter
    user_cli.o(i.prvSendAt2BleModuleCommand) refers to port.o(i.vPortEnterCritical) for vPortEnterCritical
    user_cli.o(i.prvSendAt2BleModuleCommand) refers to strlen.o(.text) for strlen
    user_cli.o(i.prvSendAt2BleModuleCommand) refers to usart.o(i._CMIOT_Uart_send) for _CMIOT_Uart_send
    user_cli.o(i.prvSendAt2BleModuleCommand) refers to port.o(i.vPortExitCritical) for vPortExitCritical
    user_cli.o(i.prvSendAt2NbModuleCommand) refers to freertos_cli.o(i.FreeRTOS_CLIGetParameter) for FreeRTOS_CLIGetParameter
    user_cli.o(i.prvSendAt2NbModuleCommand) refers to port.o(i.vPortEnterCritical) for vPortEnterCritical
    user_cli.o(i.prvSendAt2NbModuleCommand) refers to strlen.o(.text) for strlen
    user_cli.o(i.prvSendAt2NbModuleCommand) refers to usart.o(i._CMIOT_Uart_send) for _CMIOT_Uart_send
    user_cli.o(i.prvSendAt2NbModuleCommand) refers to port.o(i.vPortExitCritical) for vPortExitCritical
    user_cli.o(.data) refers to user_cli.o(.conststring) for .conststring
    user_cli.o(.data) refers to user_cli.o(i.prvDebugLevelCommand) for prvDebugLevelCommand
    user_cli.o(.data) refers to user_cli.o(i.prvGetSysTimeCommand) for prvGetSysTimeCommand
    user_cli.o(.data) refers to user_cli.o(i.prvGetHeapUsageCommand) for prvGetHeapUsageCommand
    user_cli.o(.data) refers to user_cli.o(i.prvSendAt2NbModuleCommand) for prvSendAt2NbModuleCommand
    user_cli.o(.data) refers to user_cli.o(i.prvEnableNbDebugModeCommand) for prvEnableNbDebugModeCommand
    user_cli.o(.data) refers to user_cli.o(i.prvSendAt2BleModuleCommand) for prvSendAt2BleModuleCommand
    user_cli.o(.data) refers to user_cli.o(i.prvEnableBleDebugModeCommand) for prvEnableBleDebugModeCommand
    user_cli.o(.data) refers to user_cli.o(i.prvGetWechatHistoryListCommand) for prvGetWechatHistoryListCommand
    user_cli.o(.data) refers to user_cli.o(i.prvGetWechatHistoryDataCommand) for prvGetWechatHistoryDataCommand
    m5310.o(i._CMIOT_ExecuteAtCmd) refers to memseta.o(.text) for __aeabi_memclr
    m5310.o(i._CMIOT_ExecuteAtCmd) refers to strlen.o(.text) for strlen
    m5310.o(i._CMIOT_ExecuteAtCmd) refers to usart.o(i._CMIOT_Uart_send) for _CMIOT_Uart_send
    m5310.o(i._CMIOT_ExecuteAtCmd) refers to common.o(i._CMIOT_Debug) for _CMIOT_Debug
    m5310.o(i._CMIOT_ExecuteAtCmd) refers to strstr.o(.text) for strstr
    m5310.o(i._CMIOT_ExecuteAtCmd) refers to delay.o(i.delay_ms) for delay_ms
    m5310.o(i._CMIOT_ExecuteAtCmd) refers to m5310.o(.bss) for UART_M5310_RxBuffer
    m5310.o(i._CMIOT_ExecuteAtCmd) refers to m5310.o(.data) for UART_M5310_RxBufferLen
    m5310.o(i._CMIOT_ExecuteAtCmd) refers to m5310.o(.constdata) for __func__
    m5310.o(i._CMIOT_GetICCID) refers to memcpya.o(.text) for __aeabi_memcpy4
    m5310.o(i._CMIOT_GetICCID) refers to memseta.o(.text) for __aeabi_memclr
    m5310.o(i._CMIOT_GetICCID) refers to m5310.o(i._CMIOT_ExecuteAtCmd) for _CMIOT_ExecuteAtCmd
    m5310.o(i._CMIOT_GetICCID) refers to strstr.o(.text) for strstr
    m5310.o(i._CMIOT_GetICCID) refers to strncat.o(.text) for strncat
    m5310.o(i._CMIOT_GetICCID) refers to common.o(i._CMIOT_Debug) for _CMIOT_Debug
    m5310.o(i._CMIOT_GetICCID) refers to delay.o(i.delay_ms) for delay_ms
    m5310.o(i._CMIOT_GetICCID) refers to strncpy.o(.text) for strncpy
    m5310.o(i._CMIOT_GetICCID) refers to m5310.o(.constdata) for .constdata
    m5310.o(i._CMIOT_GetICCID) refers to m5310.o(.bss) for UART_M5310_RxBuffer
    m5310.o(i._CMIOT_GetIMEI) refers to memcpya.o(.text) for __aeabi_memcpy4
    m5310.o(i._CMIOT_GetIMEI) refers to memseta.o(.text) for __aeabi_memclr
    m5310.o(i._CMIOT_GetIMEI) refers to m5310.o(i._CMIOT_ExecuteAtCmd) for _CMIOT_ExecuteAtCmd
    m5310.o(i._CMIOT_GetIMEI) refers to strstr.o(.text) for strstr
    m5310.o(i._CMIOT_GetIMEI) refers to strncat.o(.text) for strncat
    m5310.o(i._CMIOT_GetIMEI) refers to common.o(i._CMIOT_Debug) for _CMIOT_Debug
    m5310.o(i._CMIOT_GetIMEI) refers to common.o(i._CMIOT_Str_StartWith) for _CMIOT_Str_StartWith
    m5310.o(i._CMIOT_GetIMEI) refers to delay.o(i.delay_ms) for delay_ms
    m5310.o(i._CMIOT_GetIMEI) refers to strncpy.o(.text) for strncpy
    m5310.o(i._CMIOT_GetIMEI) refers to m5310.o(.constdata) for .constdata
    m5310.o(i._CMIOT_GetIMEI) refers to m5310.o(.bss) for UART_M5310_RxBuffer
    m5310.o(i._CMIOT_GetIMSI) refers to memcpya.o(.text) for __aeabi_memcpy4
    m5310.o(i._CMIOT_GetIMSI) refers to memseta.o(.text) for __aeabi_memclr
    m5310.o(i._CMIOT_GetIMSI) refers to m5310.o(i._CMIOT_ExecuteAtCmd) for _CMIOT_ExecuteAtCmd
    m5310.o(i._CMIOT_GetIMSI) refers to strstr.o(.text) for strstr
    m5310.o(i._CMIOT_GetIMSI) refers to strncat.o(.text) for strncat
    m5310.o(i._CMIOT_GetIMSI) refers to common.o(i._CMIOT_Debug) for _CMIOT_Debug
    m5310.o(i._CMIOT_GetIMSI) refers to delay.o(i.delay_ms) for delay_ms
    m5310.o(i._CMIOT_GetIMSI) refers to strncpy.o(.text) for strncpy
    m5310.o(i._CMIOT_GetIMSI) refers to m5310.o(.constdata) for .constdata
    m5310.o(i._CMIOT_GetIMSI) refers to m5310.o(.bss) for UART_M5310_RxBuffer
    m5310.o(i._CMIOT_GetModuleName) refers to memcpya.o(.text) for __aeabi_memcpy4
    m5310.o(i._CMIOT_GetModuleName) refers to memseta.o(.text) for __aeabi_memclr
    m5310.o(i._CMIOT_GetModuleName) refers to m5310.o(i._CMIOT_ExecuteAtCmd) for _CMIOT_ExecuteAtCmd
    m5310.o(i._CMIOT_GetModuleName) refers to strstr.o(.text) for strstr
    m5310.o(i._CMIOT_GetModuleName) refers to strncat.o(.text) for strncat
    m5310.o(i._CMIOT_GetModuleName) refers to common.o(i._CMIOT_Debug) for _CMIOT_Debug
    m5310.o(i._CMIOT_GetModuleName) refers to delay.o(i.delay_ms) for delay_ms
    m5310.o(i._CMIOT_GetModuleName) refers to strncpy.o(.text) for strncpy
    m5310.o(i._CMIOT_GetModuleName) refers to m5310.o(.constdata) for .constdata
    m5310.o(i._CMIOT_GetModuleName) refers to m5310.o(.bss) for UART_M5310_RxBuffer
    m5310.o(i._CMIOT_GetModuleVersion) refers to memcpya.o(.text) for __aeabi_memcpy4
    m5310.o(i._CMIOT_GetModuleVersion) refers to memseta.o(.text) for __aeabi_memclr
    m5310.o(i._CMIOT_GetModuleVersion) refers to m5310.o(i._CMIOT_ExecuteAtCmd) for _CMIOT_ExecuteAtCmd
    m5310.o(i._CMIOT_GetModuleVersion) refers to strstr.o(.text) for strstr
    m5310.o(i._CMIOT_GetModuleVersion) refers to strncat.o(.text) for strncat
    m5310.o(i._CMIOT_GetModuleVersion) refers to common.o(i._CMIOT_Debug) for _CMIOT_Debug
    m5310.o(i._CMIOT_GetModuleVersion) refers to delay.o(i.delay_ms) for delay_ms
    m5310.o(i._CMIOT_GetModuleVersion) refers to strncpy.o(.text) for strncpy
    m5310.o(i._CMIOT_GetModuleVersion) refers to m5310.o(.constdata) for .constdata
    m5310.o(i._CMIOT_GetModuleVersion) refers to m5310.o(.bss) for UART_M5310_RxBuffer
    m5310.o(i._CMIOT_GetNB_Band) refers to memcpya.o(.text) for __aeabi_memcpy4
    m5310.o(i._CMIOT_GetNB_Band) refers to m5310.o(i._CMIOT_ExecuteAtCmd) for _CMIOT_ExecuteAtCmd
    m5310.o(i._CMIOT_GetNB_Band) refers to strstr.o(.text) for strstr
    m5310.o(i._CMIOT_GetNB_Band) refers to common.o(i._CMIOT_Debug) for _CMIOT_Debug
    m5310.o(i._CMIOT_GetNB_Band) refers to delay.o(i.delay_ms) for delay_ms
    m5310.o(i._CMIOT_GetNB_Band) refers to m5310.o(.constdata) for .constdata
    m5310.o(i._CMIOT_GetNB_Band) refers to m5310.o(.bss) for UART_M5310_RxBuffer
    m5310.o(i._CMIOT_GetNetworkDelay) refers to memcpya.o(.text) for __aeabi_memcpy4
    m5310.o(i._CMIOT_GetNetworkDelay) refers to memseta.o(.text) for __aeabi_memclr4
    m5310.o(i._CMIOT_GetNetworkDelay) refers to printfa.o(i.__0sprintf) for __2sprintf
    m5310.o(i._CMIOT_GetNetworkDelay) refers to m5310.o(i._CMIOT_ExecuteAtCmd) for _CMIOT_ExecuteAtCmd
    m5310.o(i._CMIOT_GetNetworkDelay) refers to delay.o(i.delay_ms) for delay_ms
    m5310.o(i._CMIOT_GetNetworkDelay) refers to strstr.o(.text) for strstr
    m5310.o(i._CMIOT_GetNetworkDelay) refers to common.o(i._CMIOT_Debug) for _CMIOT_Debug
    m5310.o(i._CMIOT_GetNetworkDelay) refers to m5310.o(.constdata) for .constdata
    m5310.o(i._CMIOT_GetNetworkDelay) refers to m5310.o(.bss) for UART_M5310_RxBuffer
    m5310.o(i._CMIOT_GetPLMN) refers to memcpya.o(.text) for __aeabi_memcpy4
    m5310.o(i._CMIOT_GetPLMN) refers to memseta.o(.text) for __aeabi_memclr
    m5310.o(i._CMIOT_GetPLMN) refers to m5310.o(i._CMIOT_ExecuteAtCmd) for _CMIOT_ExecuteAtCmd
    m5310.o(i._CMIOT_GetPLMN) refers to strstr.o(.text) for strstr
    m5310.o(i._CMIOT_GetPLMN) refers to strncat.o(.text) for strncat
    m5310.o(i._CMIOT_GetPLMN) refers to common.o(i._CMIOT_Debug) for _CMIOT_Debug
    m5310.o(i._CMIOT_GetPLMN) refers to delay.o(i.delay_ms) for delay_ms
    m5310.o(i._CMIOT_GetPLMN) refers to m5310.o(.constdata) for .constdata
    m5310.o(i._CMIOT_GetPLMN) refers to m5310.o(.bss) for UART_M5310_RxBuffer
    m5310.o(i._CMIOT_GetUeCellStats) refers to memcpya.o(.text) for __aeabi_memcpy4
    m5310.o(i._CMIOT_GetUeCellStats) refers to memseta.o(.text) for __aeabi_memclr4
    m5310.o(i._CMIOT_GetUeCellStats) refers to m5310.o(i._CMIOT_ExecuteAtCmd) for _CMIOT_ExecuteAtCmd
    m5310.o(i._CMIOT_GetUeCellStats) refers to strstr.o(.text) for strstr
    m5310.o(i._CMIOT_GetUeCellStats) refers to common.o(i._CMIOT_Debug) for _CMIOT_Debug
    m5310.o(i._CMIOT_GetUeCellStats) refers to heap_4.o(i.pvPortMalloc) for pvPortMalloc
    m5310.o(i._CMIOT_GetUeCellStats) refers to common.o(i.cm_split) for cm_split
    m5310.o(i._CMIOT_GetUeCellStats) refers to common.o(i._CMIOT_atoi) for _CMIOT_atoi
    m5310.o(i._CMIOT_GetUeCellStats) refers to heap_4.o(i.vPortFree) for vPortFree
    m5310.o(i._CMIOT_GetUeCellStats) refers to delay.o(i.delay_ms) for delay_ms
    m5310.o(i._CMIOT_GetUeCellStats) refers to m5310.o(.constdata) for .constdata
    m5310.o(i._CMIOT_GetUeCellStats) refers to m5310.o(.bss) for UART_M5310_RxBuffer
    m5310.o(i._CMIOT_GetUeCellStats) refers to m5310.o(.conststring) for .conststring
    m5310.o(i._CMIOT_GetUeTHPStats) refers to memcpya.o(.text) for __aeabi_memcpy4
    m5310.o(i._CMIOT_GetUeTHPStats) refers to memseta.o(.text) for __aeabi_memclr4
    m5310.o(i._CMIOT_GetUeTHPStats) refers to m5310.o(i._CMIOT_ExecuteAtCmd) for _CMIOT_ExecuteAtCmd
    m5310.o(i._CMIOT_GetUeTHPStats) refers to strstr.o(.text) for strstr
    m5310.o(i._CMIOT_GetUeTHPStats) refers to common.o(i._CMIOT_Debug) for _CMIOT_Debug
    m5310.o(i._CMIOT_GetUeTHPStats) refers to heap_4.o(i.pvPortMalloc) for pvPortMalloc
    m5310.o(i._CMIOT_GetUeTHPStats) refers to common.o(i.cm_split) for cm_split
    m5310.o(i._CMIOT_GetUeTHPStats) refers to strcmp.o(.text) for strcmp
    m5310.o(i._CMIOT_GetUeTHPStats) refers to common.o(i._CMIOT_atoi) for _CMIOT_atoi
    m5310.o(i._CMIOT_GetUeTHPStats) refers to heap_4.o(i.vPortFree) for vPortFree
    m5310.o(i._CMIOT_GetUeTHPStats) refers to delay.o(i.delay_ms) for delay_ms
    m5310.o(i._CMIOT_GetUeTHPStats) refers to m5310.o(.constdata) for .constdata
    m5310.o(i._CMIOT_GetUeTHPStats) refers to m5310.o(.bss) for UART_M5310_RxBuffer
    m5310.o(i._CMIOT_Get_PSM_TIMER_Value) refers to memcpya.o(.text) for __aeabi_memcpy4
    m5310.o(i._CMIOT_Get_PSM_TIMER_Value) refers to memseta.o(.text) for __aeabi_memclr
    m5310.o(i._CMIOT_Get_PSM_TIMER_Value) refers to m5310.o(i._CMIOT_ExecuteAtCmd) for _CMIOT_ExecuteAtCmd
    m5310.o(i._CMIOT_Get_PSM_TIMER_Value) refers to common.o(i._CMIOT_Debug) for _CMIOT_Debug
    m5310.o(i._CMIOT_Get_PSM_TIMER_Value) refers to strstr.o(.text) for strstr
    m5310.o(i._CMIOT_Get_PSM_TIMER_Value) refers to strncmp.o(.text) for strncmp
    m5310.o(i._CMIOT_Get_PSM_TIMER_Value) refers to strncpy.o(.text) for strncpy
    m5310.o(i._CMIOT_Get_PSM_TIMER_Value) refers to printfa.o(i.__0sprintf) for __2sprintf
    m5310.o(i._CMIOT_Get_PSM_TIMER_Value) refers to delay.o(i.delay_ms) for delay_ms
    m5310.o(i._CMIOT_Get_PSM_TIMER_Value) refers to m5310.o(.constdata) for .constdata
    m5310.o(i._CMIOT_Get_PSM_TIMER_Value) refers to m5310.o(.bss) for UART_M5310_RxBuffer
    m5310.o(i._CMIOT_IsPdpAttached) refers to memcpya.o(.text) for __aeabi_memcpy4
    m5310.o(i._CMIOT_IsPdpAttached) refers to m5310.o(i._CMIOT_ExecuteAtCmd) for _CMIOT_ExecuteAtCmd
    m5310.o(i._CMIOT_IsPdpAttached) refers to common.o(i._CMIOT_Debug) for _CMIOT_Debug
    m5310.o(i._CMIOT_IsPdpAttached) refers to m5310.o(.constdata) for .constdata
    m5310.o(i._CMIOT_M5310PowerGpioInit) refers to stm32f10x_rcc.o(i.RCC_APB2PeriphClockCmd) for RCC_APB2PeriphClockCmd
    m5310.o(i._CMIOT_M5310PowerGpioInit) refers to stm32f10x_gpio.o(i.GPIO_Init) for GPIO_Init
    m5310.o(i._CMIOT_M5310_GetRegisterTime) refers to memcpya.o(.text) for __aeabi_memcpy4
    m5310.o(i._CMIOT_M5310_GetRegisterTime) refers to m5310.o(i._CMIOT_ExecuteAtCmd) for _CMIOT_ExecuteAtCmd
    m5310.o(i._CMIOT_M5310_GetRegisterTime) refers to common.o(i._CMIOT_Debug) for _CMIOT_Debug
    m5310.o(i._CMIOT_M5310_GetRegisterTime) refers to delay.o(i.delay_ms) for delay_ms
    m5310.o(i._CMIOT_M5310_GetRegisterTime) refers to m5310.o(.constdata) for .constdata
    m5310.o(i._CMIOT_M5310_GetRegisterTime) refers to timer.o(.data) for FreeRTOSRunTimeTicks
    m5310.o(i._CMIOT_M5310_GetSignalstrength) refers to memcpya.o(.text) for __aeabi_memcpy4
    m5310.o(i._CMIOT_M5310_GetSignalstrength) refers to m5310.o(i._CMIOT_ExecuteAtCmd) for _CMIOT_ExecuteAtCmd
    m5310.o(i._CMIOT_M5310_GetSignalstrength) refers to strstr.o(.text) for strstr
    m5310.o(i._CMIOT_M5310_GetSignalstrength) refers to common.o(i._CMIOT_Debug) for _CMIOT_Debug
    m5310.o(i._CMIOT_M5310_GetSignalstrength) refers to delay.o(i.delay_ms) for delay_ms
    m5310.o(i._CMIOT_M5310_GetSignalstrength) refers to m5310.o(.constdata) for .constdata
    m5310.o(i._CMIOT_M5310_GetSignalstrength) refers to m5310.o(.bss) for UART_M5310_RxBuffer
    m5310.o(i._CMIOT_M5310_GetUeState) refers to memcpya.o(.text) for __aeabi_memcpy4
    m5310.o(i._CMIOT_M5310_GetUeState) refers to memseta.o(.text) for __aeabi_memclr4
    m5310.o(i._CMIOT_M5310_GetUeState) refers to m5310.o(i._CMIOT_ExecuteAtCmd) for _CMIOT_ExecuteAtCmd
    m5310.o(i._CMIOT_M5310_GetUeState) refers to strstr.o(.text) for strstr
    m5310.o(i._CMIOT_M5310_GetUeState) refers to common.o(i._CMIOT_Debug) for _CMIOT_Debug
    m5310.o(i._CMIOT_M5310_GetUeState) refers to strncpy.o(.text) for strncpy
    m5310.o(i._CMIOT_M5310_GetUeState) refers to m5310.o(.constdata) for .constdata
    m5310.o(i._CMIOT_M5310_GetUeState) refers to m5310.o(.bss) for UART_M5310_RxBuffer
    m5310.o(i._CMIOT_M5310_Init) refers to m5310.o(i._CMIOT_M5310PowerGpioInit) for _CMIOT_M5310PowerGpioInit
    m5310.o(i._CMIOT_M5310_Init) refers to delay.o(i.delay_ms) for delay_ms
    m5310.o(i._CMIOT_M5310_Init) refers to m5310.o(i.cm_IsNbModuleAlive) for cm_IsNbModuleAlive
    m5310.o(i._CMIOT_M5310_Init) refers to m5310.o(i._CMIOT_SetScramblingState) for _CMIOT_SetScramblingState
    m5310.o(i._CMIOT_M5310_Init) refers to m5310.o(i._CMIOT_SetAutoConnect) for _CMIOT_SetAutoConnect
    m5310.o(i._CMIOT_M5310_Init) refers to m5310.o(i._CMIOT_NbModule_Reboot) for _CMIOT_NbModule_Reboot
    m5310.o(i._CMIOT_NbModule_Reboot) refers to memcpya.o(.text) for __aeabi_memcpy4
    m5310.o(i._CMIOT_NbModule_Reboot) refers to m5310.o(i._CMIOT_ExecuteAtCmd) for _CMIOT_ExecuteAtCmd
    m5310.o(i._CMIOT_NbModule_Reboot) refers to common.o(i._CMIOT_Debug) for _CMIOT_Debug
    m5310.o(i._CMIOT_NbModule_Reboot) refers to m5310.o(.constdata) for .constdata
    m5310.o(i._CMIOT_SetAutoConnect) refers to memcpya.o(.text) for __aeabi_memcpy4
    m5310.o(i._CMIOT_SetAutoConnect) refers to m5310.o(i._CMIOT_SetMinFunctionalityState) for _CMIOT_SetMinFunctionalityState
    m5310.o(i._CMIOT_SetAutoConnect) refers to m5310.o(i._CMIOT_ExecuteAtCmd) for _CMIOT_ExecuteAtCmd
    m5310.o(i._CMIOT_SetAutoConnect) refers to common.o(i._CMIOT_Debug) for _CMIOT_Debug
    m5310.o(i._CMIOT_SetAutoConnect) refers to m5310.o(.constdata) for .constdata
    m5310.o(i._CMIOT_SetMinFunctionalityState) refers to memcpya.o(.text) for __aeabi_memcpy4
    m5310.o(i._CMIOT_SetMinFunctionalityState) refers to m5310.o(i._CMIOT_ExecuteAtCmd) for _CMIOT_ExecuteAtCmd
    m5310.o(i._CMIOT_SetMinFunctionalityState) refers to common.o(i._CMIOT_Debug) for _CMIOT_Debug
    m5310.o(i._CMIOT_SetMinFunctionalityState) refers to m5310.o(.constdata) for .constdata
    m5310.o(i._CMIOT_SetScramblingState) refers to memcpya.o(.text) for __aeabi_memcpy4
    m5310.o(i._CMIOT_SetScramblingState) refers to m5310.o(i._CMIOT_SetMinFunctionalityState) for _CMIOT_SetMinFunctionalityState
    m5310.o(i._CMIOT_SetScramblingState) refers to m5310.o(i._CMIOT_ExecuteAtCmd) for _CMIOT_ExecuteAtCmd
    m5310.o(i._CMIOT_SetScramblingState) refers to common.o(i._CMIOT_Debug) for _CMIOT_Debug
    m5310.o(i._CMIOT_SetScramblingState) refers to m5310.o(.constdata) for .constdata
    m5310.o(i.cm_IsNbModuleAlive) refers to memcpya.o(.text) for __aeabi_memcpy4
    m5310.o(i.cm_IsNbModuleAlive) refers to m5310.o(i._CMIOT_ExecuteAtCmd) for _CMIOT_ExecuteAtCmd
    m5310.o(i.cm_IsNbModuleAlive) refers to common.o(i._CMIOT_Debug) for _CMIOT_Debug
    m5310.o(i.cm_IsNbModuleAlive) refers to delay.o(i.delay_ms) for delay_ms
    m5310.o(i.cm_IsNbModuleAlive) refers to m5310.o(.constdata) for .constdata
    m5310.o(i.cm_getAPN) refers to memcpya.o(.text) for __aeabi_memcpy4
    m5310.o(i.cm_getAPN) refers to memseta.o(.text) for __aeabi_memclr
    m5310.o(i.cm_getAPN) refers to m5310.o(i._CMIOT_ExecuteAtCmd) for _CMIOT_ExecuteAtCmd
    m5310.o(i.cm_getAPN) refers to strstr.o(.text) for strstr
    m5310.o(i.cm_getAPN) refers to common.o(i._CMIOT_Debug) for _CMIOT_Debug
    m5310.o(i.cm_getAPN) refers to delay.o(i.delay_ms) for delay_ms
    m5310.o(i.cm_getAPN) refers to m5310.o(.constdata) for .constdata
    m5310.o(i.cm_getAPN) refers to m5310.o(.bss) for UART_M5310_RxBuffer
    st7789s.o(i.Draw_Circle) refers to st7789s.o(i.LCD_DrawPoint) for LCD_DrawPoint
    st7789s.o(i.ILI9341_PIC) refers to st7789s.o(i.LCD_SetCursor) for LCD_SetCursor
    st7789s.o(i.ILI9341_PIC) refers to st7789s.o(i.LCD_WriteRAM_Prepare) for LCD_WriteRAM_Prepare
    st7789s.o(i.LCD_Clear) refers to st7789s.o(i.LCD_SetCursor) for LCD_SetCursor
    st7789s.o(i.LCD_Clear) refers to st7789s.o(i.LCD_WriteRAM_Prepare) for LCD_WriteRAM_Prepare
    st7789s.o(i.LCD_DisplayOff) refers to st7789s.o(i.LCD_WR_REG) for LCD_WR_REG
    st7789s.o(i.LCD_DisplayOn) refers to st7789s.o(i.LCD_WR_REG) for LCD_WR_REG
    st7789s.o(i.LCD_DrawLine) refers to st7789s.o(i.LCD_DrawPoint) for LCD_DrawPoint
    st7789s.o(i.LCD_DrawPoint) refers to st7789s.o(i.LCD_SetCursor) for LCD_SetCursor
    st7789s.o(i.LCD_DrawPoint) refers to st7789s.o(i.LCD_WriteRAM_Prepare) for LCD_WriteRAM_Prepare
    st7789s.o(i.LCD_DrawPoint) refers to st7789s.o(.data) for POINT_COLOR
    st7789s.o(i.LCD_DrawRectangle) refers to st7789s.o(i.LCD_DrawLine) for LCD_DrawLine
    st7789s.o(i.LCD_Fill) refers to st7789s.o(i.LCD_SetCursor) for LCD_SetCursor
    st7789s.o(i.LCD_Fill) refers to st7789s.o(i.LCD_WriteRAM_Prepare) for LCD_WriteRAM_Prepare
    st7789s.o(i.LCD_GPIO_Init) refers to stm32f10x_rcc.o(i.RCC_APB2PeriphClockCmd) for RCC_APB2PeriphClockCmd
    st7789s.o(i.LCD_GPIO_Init) refers to stm32f10x_gpio.o(i.GPIO_Init) for GPIO_Init
    st7789s.o(i.LCD_GPIO_Init) refers to stm32f10x_gpio.o(i.GPIO_SetBits) for GPIO_SetBits
    st7789s.o(i.LCD_Init) refers to st7789s.o(i.LCD_GPIO_Init) for LCD_GPIO_Init
    st7789s.o(i.LCD_Init) refers to st7789s.o(i.LCD_RESET) for LCD_RESET
    st7789s.o(i.LCD_Init) refers to st7789s.o(i.LCD_WR_REG) for LCD_WR_REG
    st7789s.o(i.LCD_Init) refers to delay.o(i.delay_ms) for delay_ms
    st7789s.o(i.LCD_Init) refers to st7789s.o(i.LCD_Clear) for LCD_Clear
    st7789s.o(i.LCD_RESET) refers to delay.o(i.delay_ms) for delay_ms
    st7789s.o(i.LCD_ReadReg) refers to st7789s.o(i.LCD_WR_REG) for LCD_WR_REG
    st7789s.o(i.LCD_Show2Num) refers to st7789s.o(i.mypow) for mypow
    st7789s.o(i.LCD_Show2Num) refers to st7789s.o(i.LCD_ShowChar) for LCD_ShowChar
    st7789s.o(i.LCD_ShowChar) refers to st7789s.o(i.LCD_DrawPoint) for LCD_DrawPoint
    st7789s.o(i.LCD_ShowChar) refers to st7789s.o(.data) for POINT_COLOR
    st7789s.o(i.LCD_ShowChar) refers to st7789s.o(.constdata) for asc2_1206
    st7789s.o(i.LCD_ShowChinese) refers to st7789s.o(i.LCD_DrawPoint) for LCD_DrawPoint
    st7789s.o(i.LCD_ShowChinese) refers to st7789s.o(.constdata) for Arial24x27
    st7789s.o(i.LCD_ShowChinese) refers to st7789s.o(.data) for POINT_COLOR
    st7789s.o(i.LCD_ShowFontEN) refers to st7789s.o(i.LCD_DrawPoint) for LCD_DrawPoint
    st7789s.o(i.LCD_ShowFontEN) refers to st7789s.o(.constdata) for EnChar16x24
    st7789s.o(i.LCD_ShowFontEN) refers to st7789s.o(.data) for POINT_COLOR
    st7789s.o(i.LCD_ShowFontHZ) refers to st7789s.o(i.LCD_DrawPoint) for LCD_DrawPoint
    st7789s.o(i.LCD_ShowFontHZ) refers to st7789s.o(.constdata) for Arial24x27
    st7789s.o(i.LCD_ShowFontHZ) refers to st7789s.o(.data) for POINT_COLOR
    st7789s.o(i.LCD_ShowFontHZ_Arial) refers to st7789s.o(i.LCD_DrawPoint) for LCD_DrawPoint
    st7789s.o(i.LCD_ShowFontHZ_Arial) refers to st7789s.o(.constdata) for newArialCnChar16x16
    st7789s.o(i.LCD_ShowFontHZ_Arial) refers to st7789s.o(.data) for POINT_COLOR
    st7789s.o(i.LCD_ShowNum) refers to st7789s.o(i.mypow) for mypow
    st7789s.o(i.LCD_ShowNum) refers to st7789s.o(i.LCD_ShowChar) for LCD_ShowChar
    st7789s.o(i.LCD_ShowPicture) refers to st7789s.o(i.LCD_DrawPoint) for LCD_DrawPoint
    st7789s.o(i.LCD_ShowPicture) refers to st7789s.o(.data) for POINT_COLOR
    st7789s.o(i.LCD_ShowString) refers to st7789s.o(i.LCD_ShowChar) for LCD_ShowChar
    st7789s.o(i.LCD_WriteRAM_Prepare) refers to st7789s.o(i.LCD_WR_REG) for LCD_WR_REG
    st7789s.o(i.LCD_WriteReg) refers to st7789s.o(i.LCD_WR_REG) for LCD_WR_REG
    ui.o(i._CMIOT_BluetoothMode) refers to memseta.o(.text) for __aeabi_memclr
    ui.o(i._CMIOT_BluetoothMode) refers to st7789s.o(i.LCD_ShowChinese) for LCD_ShowChinese
    ui.o(i._CMIOT_BluetoothMode) refers to st7789s.o(i.LCD_ShowPicture) for LCD_ShowPicture
    ui.o(i._CMIOT_BluetoothMode) refers to bluetooth.o(i._CMIOT_BLE_EnterPassthroughMode) for _CMIOT_BLE_EnterPassthroughMode
    ui.o(i._CMIOT_BluetoothMode) refers to bluetooth.o(.bss) for UART_BLE_RxBuffer
    ui.o(i._CMIOT_BluetoothMode) refers to bluetooth.o(.data) for UART_BLE_RxBufferLen
    ui.o(i._CMIOT_BluetoothMode) refers to ui.o(.constdata) for gImage_qrCode
    ui.o(i._CMIOT_ComprehensiveTest) refers to st7789s.o(i.LCD_Fill) for LCD_Fill
    ui.o(i._CMIOT_ComprehensiveTest) refers to st7789s.o(i.LCD_ShowChinese) for LCD_ShowChinese
    ui.o(i._CMIOT_ComprehensiveTest) refers to st7789s.o(i.LCD_DrawLine) for LCD_DrawLine
    ui.o(i._CMIOT_ComprehensiveTest) refers to st7789s.o(i.LCD_DrawRectangle) for LCD_DrawRectangle
    ui.o(i._CMIOT_ComprehensiveTest) refers to printfa.o(i.__0sprintf) for __2sprintf
    ui.o(i._CMIOT_ComprehensiveTest) refers to st7789s.o(i.LCD_ShowString) for LCD_ShowString
    ui.o(i._CMIOT_ComprehensiveTest) refers to m5310.o(i._CMIOT_M5310_GetRegisterTime) for _CMIOT_M5310_GetRegisterTime
    ui.o(i._CMIOT_ComprehensiveTest) refers to delay.o(i.delay_ms) for delay_ms
    ui.o(i._CMIOT_ComprehensiveTest) refers to ffltui.o(.text) for __aeabi_ui2f
    ui.o(i._CMIOT_ComprehensiveTest) refers to fdiv.o(.text) for __aeabi_fdiv
    ui.o(i._CMIOT_ComprehensiveTest) refers to f2d.o(.text) for __aeabi_f2d
    ui.o(i._CMIOT_ComprehensiveTest) refers to fmul.o(.text) for __aeabi_fmul
    ui.o(i._CMIOT_ComprehensiveTest) refers to m5310.o(i._CMIOT_M5310_GetSignalstrength) for _CMIOT_M5310_GetSignalstrength
    ui.o(i._CMIOT_ComprehensiveTest) refers to m5310.o(i._CMIOT_GetNetworkDelay) for _CMIOT_GetNetworkDelay
    ui.o(i._CMIOT_ComprehensiveTest) refers to st7789s.o(.data) for POINT_COLOR
    ui.o(i._CMIOT_ComprehensiveTest) refers to ui.o(.bss) for msg
    ui.o(i._CMIOT_ComprehensiveTest) refers to floor.o(i.floor) for floor
    ui.o(i._CMIOT_ComprehensiveTest) refers to dadd.o(.text) for __aeabi_dadd
    ui.o(i._CMIOT_ComprehensiveTest) refers to dfixui.o(.text) for __aeabi_d2uiz
    ui.o(i._CMIOT_GUI_Init) refers to common.o(i._CMIOT_Debug) for _CMIOT_Debug
    ui.o(i._CMIOT_GUI_Init) refers to bluetooth.o(i._CMIOT_BLE_ExitPassthroughMode) for _CMIOT_BLE_ExitPassthroughMode
    ui.o(i._CMIOT_GUI_Init) refers to memseta.o(.text) for __aeabi_memclr
    ui.o(i._CMIOT_GUI_Init) refers to st7789s.o(i.LCD_Clear) for LCD_Clear
    ui.o(i._CMIOT_GUI_Init) refers to st7789s.o(i.LCD_ShowPicture) for LCD_ShowPicture
    ui.o(i._CMIOT_GUI_Init) refers to st7789s.o(i.LCD_ShowChinese) for LCD_ShowChinese
    ui.o(i._CMIOT_GUI_Init) refers to st7789s.o(i.LCD_DrawLine) for LCD_DrawLine
    ui.o(i._CMIOT_GUI_Init) refers to ui.o(.constdata) for __func__
    ui.o(i._CMIOT_GUI_Init) refers to bluetooth.o(.bss) for UART_BLE_RxBuffer
    ui.o(i._CMIOT_GUI_Init) refers to bluetooth.o(.data) for UART_BLE_RxBufferLen
    ui.o(i._CMIOT_GUI_Init) refers to st7789s.o(.data) for POINT_COLOR
    ui.o(i._CMIOT_NBIOT_Measurement) refers to common.o(i._CMIOT_Debug) for _CMIOT_Debug
    ui.o(i._CMIOT_NBIOT_Measurement) refers to st7789s.o(i.LCD_Fill) for LCD_Fill
    ui.o(i._CMIOT_NBIOT_Measurement) refers to ui.o(i._CMIOT_ShowDeviceInfo) for _CMIOT_ShowDeviceInfo
    ui.o(i._CMIOT_NBIOT_Measurement) refers to ui.o(i._CMIOT_ShowNetworkRegTime) for _CMIOT_ShowNetworkRegTime
    ui.o(i._CMIOT_NBIOT_Measurement) refers to ui.o(i._CMIOT_ShowRadioInfo) for _CMIOT_ShowRadioInfo
    ui.o(i._CMIOT_NBIOT_Measurement) refers to ui.o(i._CMIOT_ShowPingResult) for _CMIOT_ShowPingResult
    ui.o(i._CMIOT_NBIOT_Measurement) refers to ui.o(i._CMIOT_ShowSpeedInfo) for _CMIOT_ShowSpeedInfo
    ui.o(i._CMIOT_NBIOT_Measurement) refers to ui.o(i._CMIOT_BluetoothMode) for _CMIOT_BluetoothMode
    ui.o(i._CMIOT_NBIOT_Measurement) refers to ui.o(i._CMIOT_ShowInstructionMsg) for _CMIOT_ShowInstructionMsg
    ui.o(i._CMIOT_NBIOT_Measurement) refers to ui.o(.constdata) for __func__
    ui.o(i._CMIOT_ShowBatteryLevel) refers to st7789s.o(i.LCD_DrawRectangle) for LCD_DrawRectangle
    ui.o(i._CMIOT_ShowBatteryLevel) refers to st7789s.o(i.LCD_Fill) for LCD_Fill
    ui.o(i._CMIOT_ShowBatteryLevel) refers to st7789s.o(.data) for POINT_COLOR
    ui.o(i._CMIOT_ShowBatteryTips) refers to port.o(i.vPortEnterCritical) for vPortEnterCritical
    ui.o(i._CMIOT_ShowBatteryTips) refers to adc.o(i.cm_getBatteryVol) for cm_getBatteryVol
    ui.o(i._CMIOT_ShowBatteryTips) refers to f2d.o(.text) for __aeabi_f2d
    ui.o(i._CMIOT_ShowBatteryTips) refers to cdrcmple.o(.text) for __aeabi_cdrcmple
    ui.o(i._CMIOT_ShowBatteryTips) refers to ui.o(i._CMIOT_ShowBatteryLevel) for _CMIOT_ShowBatteryLevel
    ui.o(i._CMIOT_ShowBatteryTips) refers to cfrcmple.o(.text) for __aeabi_cfrcmple
    ui.o(i._CMIOT_ShowBatteryTips) refers to st7789s.o(i.LCD_ShowPicture) for LCD_ShowPicture
    ui.o(i._CMIOT_ShowBatteryTips) refers to port.o(i.vPortExitCritical) for vPortExitCritical
    ui.o(i._CMIOT_ShowBatteryTips) refers to ui.o(.constdata) for gImage_chargePowerIcon
    ui.o(i._CMIOT_ShowDeviceInfo) refers to st7789s.o(i.LCD_Fill) for LCD_Fill
    ui.o(i._CMIOT_ShowDeviceInfo) refers to st7789s.o(i.LCD_ShowChinese) for LCD_ShowChinese
    ui.o(i._CMIOT_ShowDeviceInfo) refers to st7789s.o(i.LCD_ShowString) for LCD_ShowString
    ui.o(i._CMIOT_ShowDeviceInfo) refers to m5310.o(i._CMIOT_GetModuleName) for _CMIOT_GetModuleName
    ui.o(i._CMIOT_ShowDeviceInfo) refers to m5310.o(i._CMIOT_GetIMEI) for _CMIOT_GetIMEI
    ui.o(i._CMIOT_ShowDeviceInfo) refers to m5310.o(i._CMIOT_GetICCID) for _CMIOT_GetICCID
    ui.o(i._CMIOT_ShowDeviceInfo) refers to m5310.o(i._CMIOT_GetIMSI) for _CMIOT_GetIMSI
    ui.o(i._CMIOT_ShowDeviceInfo) refers to m5310.o(i._CMIOT_GetModuleVersion) for _CMIOT_GetModuleVersion
    ui.o(i._CMIOT_ShowDeviceInfo) refers to common.o(i.cm_getbuildVersion) for cm_getbuildVersion
    ui.o(i._CMIOT_ShowDeviceInfo) refers to adc.o(i.cm_getBatteryVol) for cm_getBatteryVol
    ui.o(i._CMIOT_ShowDeviceInfo) refers to f2d.o(.text) for __aeabi_f2d
    ui.o(i._CMIOT_ShowDeviceInfo) refers to printfa.o(i.__0sprintf) for __2sprintf
    ui.o(i._CMIOT_ShowDeviceInfo) refers to bluetooth.o(i._CMIOT_GetBleConnectedState) for _CMIOT_GetBleConnectedState
    ui.o(i._CMIOT_ShowDeviceInfo) refers to m5310.o(i._CMIOT_M5310_GetSignalstrength) for _CMIOT_M5310_GetSignalstrength
    ui.o(i._CMIOT_ShowDeviceInfo) refers to ui.o(i._CMIOT_ShowSignalStrength) for _CMIOT_ShowSignalStrength
    ui.o(i._CMIOT_ShowDeviceInfo) refers to delay.o(i.delay_ms) for delay_ms
    ui.o(i._CMIOT_ShowDeviceInfo) refers to st7789s.o(.data) for POINT_COLOR
    ui.o(i._CMIOT_ShowDeviceInfo) refers to ui.o(.bss) for msg
    ui.o(i._CMIOT_ShowInstructionMsg) refers to st7789s.o(i.LCD_ShowChinese) for LCD_ShowChinese
    ui.o(i._CMIOT_ShowNetworkRegTime) refers to st7789s.o(i.LCD_ShowChinese) for LCD_ShowChinese
    ui.o(i._CMIOT_ShowNetworkRegTime) refers to st7789s.o(i.LCD_ShowFontEN) for LCD_ShowFontEN
    ui.o(i._CMIOT_ShowNetworkRegTime) refers to st7789s.o(i.LCD_DrawLine) for LCD_DrawLine
    ui.o(i._CMIOT_ShowNetworkRegTime) refers to st7789s.o(i.LCD_Fill) for LCD_Fill
    ui.o(i._CMIOT_ShowNetworkRegTime) refers to st7789s.o(i.LCD_ShowString) for LCD_ShowString
    ui.o(i._CMIOT_ShowNetworkRegTime) refers to m5310.o(i._CMIOT_M5310_GetRegisterTime) for _CMIOT_M5310_GetRegisterTime
    ui.o(i._CMIOT_ShowNetworkRegTime) refers to delay.o(i.delay_ms) for delay_ms
    ui.o(i._CMIOT_ShowNetworkRegTime) refers to ffltui.o(.text) for __aeabi_ui2f
    ui.o(i._CMIOT_ShowNetworkRegTime) refers to fdiv.o(.text) for __aeabi_fdiv
    ui.o(i._CMIOT_ShowNetworkRegTime) refers to f2d.o(.text) for __aeabi_f2d
    ui.o(i._CMIOT_ShowNetworkRegTime) refers to printfa.o(i.__0sprintf) for __2sprintf
    ui.o(i._CMIOT_ShowNetworkRegTime) refers to fmul.o(.text) for __aeabi_fmul
    ui.o(i._CMIOT_ShowNetworkRegTime) refers to m5310.o(i._CMIOT_M5310_GetSignalstrength) for _CMIOT_M5310_GetSignalstrength
    ui.o(i._CMIOT_ShowNetworkRegTime) refers to ui.o(i._CMIOT_ShowSignalStrength) for _CMIOT_ShowSignalStrength
    ui.o(i._CMIOT_ShowNetworkRegTime) refers to st7789s.o(.data) for POINT_COLOR
    ui.o(i._CMIOT_ShowNetworkRegTime) refers to ui.o(.bss) for msg
    ui.o(i._CMIOT_ShowPingResult) refers to st7789s.o(i.LCD_ShowChinese) for LCD_ShowChinese
    ui.o(i._CMIOT_ShowPingResult) refers to st7789s.o(i.LCD_ShowFontEN) for LCD_ShowFontEN
    ui.o(i._CMIOT_ShowPingResult) refers to st7789s.o(i.LCD_DrawLine) for LCD_DrawLine
    ui.o(i._CMIOT_ShowPingResult) refers to st7789s.o(i.LCD_Fill) for LCD_Fill
    ui.o(i._CMIOT_ShowPingResult) refers to st7789s.o(i.LCD_ShowString) for LCD_ShowString
    ui.o(i._CMIOT_ShowPingResult) refers to m5310.o(i._CMIOT_IsPdpAttached) for _CMIOT_IsPdpAttached
    ui.o(i._CMIOT_ShowPingResult) refers to delay.o(i.delay_ms) for delay_ms
    ui.o(i._CMIOT_ShowPingResult) refers to printfa.o(i.__0sprintf) for __2sprintf
    ui.o(i._CMIOT_ShowPingResult) refers to m5310.o(i._CMIOT_GetNetworkDelay) for _CMIOT_GetNetworkDelay
    ui.o(i._CMIOT_ShowPingResult) refers to ffltui.o(.text) for __aeabi_ui2f
    ui.o(i._CMIOT_ShowPingResult) refers to fdiv.o(.text) for __aeabi_fdiv
    ui.o(i._CMIOT_ShowPingResult) refers to fmul.o(.text) for __aeabi_fmul
    ui.o(i._CMIOT_ShowPingResult) refers to f2d.o(.text) for __aeabi_f2d
    ui.o(i._CMIOT_ShowPingResult) refers to m5310.o(i._CMIOT_M5310_GetSignalstrength) for _CMIOT_M5310_GetSignalstrength
    ui.o(i._CMIOT_ShowPingResult) refers to ui.o(i._CMIOT_ShowSignalStrength) for _CMIOT_ShowSignalStrength
    ui.o(i._CMIOT_ShowPingResult) refers to st7789s.o(.data) for POINT_COLOR
    ui.o(i._CMIOT_ShowPingResult) refers to ui.o(.bss) for msg
    ui.o(i._CMIOT_ShowRadioInfo) refers to memseta.o(.text) for __aeabi_memclr4
    ui.o(i._CMIOT_ShowRadioInfo) refers to st7789s.o(i.LCD_ShowChinese) for LCD_ShowChinese
    ui.o(i._CMIOT_ShowRadioInfo) refers to st7789s.o(i.LCD_DrawLine) for LCD_DrawLine
    ui.o(i._CMIOT_ShowRadioInfo) refers to st7789s.o(i.LCD_Fill) for LCD_Fill
    ui.o(i._CMIOT_ShowRadioInfo) refers to st7789s.o(i.LCD_ShowString) for LCD_ShowString
    ui.o(i._CMIOT_ShowRadioInfo) refers to m5310.o(i._CMIOT_GetNetworkDelay) for _CMIOT_GetNetworkDelay
    ui.o(i._CMIOT_ShowRadioInfo) refers to m5310.o(i._CMIOT_GetUeCellStats) for _CMIOT_GetUeCellStats
    ui.o(i._CMIOT_ShowRadioInfo) refers to memcpya.o(.text) for __aeabi_memcpy4
    ui.o(i._CMIOT_ShowRadioInfo) refers to fflti.o(.text) for __aeabi_i2f
    ui.o(i._CMIOT_ShowRadioInfo) refers to fdiv.o(.text) for __aeabi_fdiv
    ui.o(i._CMIOT_ShowRadioInfo) refers to f2d.o(.text) for __aeabi_f2d
    ui.o(i._CMIOT_ShowRadioInfo) refers to printfa.o(i.__0sprintf) for __2sprintf
    ui.o(i._CMIOT_ShowRadioInfo) refers to m5310.o(i._CMIOT_M5310_GetSignalstrength) for _CMIOT_M5310_GetSignalstrength
    ui.o(i._CMIOT_ShowRadioInfo) refers to common.o(i._CMIOT_Debug) for _CMIOT_Debug
    ui.o(i._CMIOT_ShowRadioInfo) refers to ui.o(i._CMIOT_ShowSignalStrength) for _CMIOT_ShowSignalStrength
    ui.o(i._CMIOT_ShowRadioInfo) refers to m5310.o(i._CMIOT_M5310_GetUeState) for _CMIOT_M5310_GetUeState
    ui.o(i._CMIOT_ShowRadioInfo) refers to m5310.o(i._CMIOT_GetPLMN) for _CMIOT_GetPLMN
    ui.o(i._CMIOT_ShowRadioInfo) refers to m5310.o(i._CMIOT_GetNB_Band) for _CMIOT_GetNB_Band
    ui.o(i._CMIOT_ShowRadioInfo) refers to m5310.o(i._CMIOT_Get_PSM_TIMER_Value) for _CMIOT_Get_PSM_TIMER_Value
    ui.o(i._CMIOT_ShowRadioInfo) refers to m5310.o(i.cm_getAPN) for cm_getAPN
    ui.o(i._CMIOT_ShowRadioInfo) refers to delay.o(i.delay_ms) for delay_ms
    ui.o(i._CMIOT_ShowRadioInfo) refers to st7789s.o(.data) for POINT_COLOR
    ui.o(i._CMIOT_ShowRadioInfo) refers to ui.o(.bss) for msg
    ui.o(i._CMIOT_ShowRadioInfo) refers to ui.o(.constdata) for __func__
    ui.o(i._CMIOT_ShowSignalStrength) refers to m5310.o(i._CMIOT_IsPdpAttached) for _CMIOT_IsPdpAttached
    ui.o(i._CMIOT_ShowSignalStrength) refers to st7789s.o(i.LCD_Fill) for LCD_Fill
    ui.o(i._CMIOT_ShowSpeedInfo) refers to st7789s.o(i.LCD_Fill) for LCD_Fill
    ui.o(i._CMIOT_ShowSpeedInfo) refers to st7789s.o(i.LCD_DrawLine) for LCD_DrawLine
    ui.o(i._CMIOT_ShowSpeedInfo) refers to st7789s.o(i.LCD_ShowString) for LCD_ShowString
    ui.o(i._CMIOT_ShowSpeedInfo) refers to m5310.o(i._CMIOT_GetNetworkDelay) for _CMIOT_GetNetworkDelay
    ui.o(i._CMIOT_ShowSpeedInfo) refers to m5310.o(i._CMIOT_GetUeTHPStats) for _CMIOT_GetUeTHPStats
    ui.o(i._CMIOT_ShowSpeedInfo) refers to ffltui.o(.text) for __aeabi_ui2f
    ui.o(i._CMIOT_ShowSpeedInfo) refers to fdiv.o(.text) for __aeabi_fdiv
    ui.o(i._CMIOT_ShowSpeedInfo) refers to f2d.o(.text) for __aeabi_f2d
    ui.o(i._CMIOT_ShowSpeedInfo) refers to printfa.o(i.__0sprintf) for __2sprintf
    ui.o(i._CMIOT_ShowSpeedInfo) refers to m5310.o(i._CMIOT_M5310_GetSignalstrength) for _CMIOT_M5310_GetSignalstrength
    ui.o(i._CMIOT_ShowSpeedInfo) refers to ui.o(i._CMIOT_ShowSignalStrength) for _CMIOT_ShowSignalStrength
    ui.o(i._CMIOT_ShowSpeedInfo) refers to delay.o(i.delay_ms) for delay_ms
    ui.o(i._CMIOT_ShowSpeedInfo) refers to st7789s.o(.data) for POINT_COLOR
    ui.o(i._CMIOT_ShowSpeedInfo) refers to ui.o(.bss) for msg
    ui.o(i._CMIOT_TabIndex) refers to common.o(i._CMIOT_Debug) for _CMIOT_Debug
    ui.o(i._CMIOT_TabIndex) refers to ui.o(i._CMIOT_GUI_Init) for _CMIOT_GUI_Init
    ui.o(i._CMIOT_TabIndex) refers to ui.o(i._CMIOT_NBIOT_Measurement) for _CMIOT_NBIOT_Measurement
    ui.o(i._CMIOT_TabIndex) refers to st7789s.o(i.LCD_ShowChinese) for LCD_ShowChinese
    ui.o(i._CMIOT_TabIndex) refers to ui.o(.constdata) for __func__
    ui.o(i._CMIOT_TabIndex) refers to m5310.o(i._CMIOT_M5310_GetSignalstrength) for _CMIOT_M5310_GetSignalstrength
    ui.o(i._CMIOT_TabIndex) refers to ui.o(i._CMIOT_ShowSignalStrength) for _CMIOT_ShowSignalStrength
    ui.o(i._CMIOT_TabIndex) refers to delay.o(i.delay_ms) for delay_ms
    ui.o(i._CMIOT_UI_BootPage) refers to st7789s.o(i.LCD_ShowPicture) for LCD_ShowPicture
    ui.o(i._CMIOT_UI_BootPage) refers to st7789s.o(i.LCD_ShowFontHZ) for LCD_ShowFontHZ
    ui.o(i._CMIOT_UI_BootPage) refers to st7789s.o(i.LCD_ShowFontEN) for LCD_ShowFontEN
    ui.o(i._CMIOT_UI_BootPage) refers to ui.o(.constdata) for BootImage
    ui.o(i._CMIOT_UI_BootPage) refers to st7789s.o(.data) for POINT_COLOR
    key.o(i.EXTI15_10_IRQHandler) refers to stm32f10x_exti.o(i.EXTI_GetITStatus) for EXTI_GetITStatus
    key.o(i.EXTI15_10_IRQHandler) refers to stm32f10x_exti.o(i.EXTI_ClearITPendingBit) for EXTI_ClearITPendingBit
    key.o(i.EXTI15_10_IRQHandler) refers to common.o(i._CMIOT_Debug) for _CMIOT_Debug
    key.o(i.EXTI15_10_IRQHandler) refers to tasks.o(i.vTaskNotifyGiveFromISR) for vTaskNotifyGiveFromISR
    key.o(i.EXTI15_10_IRQHandler) refers to delay.o(i.delay_ms) for delay_ms
    key.o(i.EXTI15_10_IRQHandler) refers to key.o(.constdata) for __func__
    key.o(i.EXTI15_10_IRQHandler) refers to main.o(.data) for menuPosition
    key.o(i.EXTI2_IRQHandler) refers to stm32f10x_exti.o(i.EXTI_GetITStatus) for EXTI_GetITStatus
    key.o(i.EXTI2_IRQHandler) refers to stm32f10x_exti.o(i.EXTI_ClearITPendingBit) for EXTI_ClearITPendingBit
    key.o(i.EXTI2_IRQHandler) refers to common.o(i._CMIOT_Debug) for _CMIOT_Debug
    key.o(i.EXTI2_IRQHandler) refers to tasks.o(i.vTaskNotifyGiveFromISR) for vTaskNotifyGiveFromISR
    key.o(i.EXTI2_IRQHandler) refers to delay.o(i.delay_ms) for delay_ms
    key.o(i.EXTI2_IRQHandler) refers to key.o(.constdata) for __func__
    key.o(i.EXTI2_IRQHandler) refers to main.o(.data) for menuPosition
    key.o(i.EXTI3_IRQHandler) refers to stm32f10x_exti.o(i.EXTI_GetITStatus) for EXTI_GetITStatus
    key.o(i.EXTI3_IRQHandler) refers to stm32f10x_exti.o(i.EXTI_ClearITPendingBit) for EXTI_ClearITPendingBit
    key.o(i.EXTI3_IRQHandler) refers to common.o(i._CMIOT_Debug) for _CMIOT_Debug
    key.o(i.EXTI3_IRQHandler) refers to tasks.o(i.vTaskNotifyGiveFromISR) for vTaskNotifyGiveFromISR
    key.o(i.EXTI3_IRQHandler) refers to delay.o(i.delay_ms) for delay_ms
    key.o(i.EXTI3_IRQHandler) refers to key.o(.constdata) for __func__
    key.o(i.EXTI3_IRQHandler) refers to main.o(.data) for menuPosition
    key.o(i.EXTI4_IRQHandler) refers to stm32f10x_exti.o(i.EXTI_GetITStatus) for EXTI_GetITStatus
    key.o(i.EXTI4_IRQHandler) refers to stm32f10x_exti.o(i.EXTI_ClearITPendingBit) for EXTI_ClearITPendingBit
    key.o(i.EXTI4_IRQHandler) refers to common.o(i._CMIOT_Debug) for _CMIOT_Debug
    key.o(i.EXTI4_IRQHandler) refers to tasks.o(i.vTaskNotifyGiveFromISR) for vTaskNotifyGiveFromISR
    key.o(i.EXTI4_IRQHandler) refers to delay.o(i.delay_ms) for delay_ms
    key.o(i.EXTI4_IRQHandler) refers to key.o(.constdata) for __func__
    key.o(i.EXTI4_IRQHandler) refers to main.o(.data) for menuPosition
    key.o(i.cm_key_init) refers to stm32f10x_rcc.o(i.RCC_APB2PeriphClockCmd) for RCC_APB2PeriphClockCmd
    key.o(i.cm_key_init) refers to stm32f10x_gpio.o(i.GPIO_PinRemapConfig) for GPIO_PinRemapConfig
    key.o(i.cm_key_init) refers to stm32f10x_dbgmcu.o(i.DBGMCU_Config) for DBGMCU_Config
    key.o(i.cm_key_init) refers to stm32f10x_gpio.o(i.GPIO_Init) for GPIO_Init
    key.o(i.cm_key_init) refers to stm32f10x_gpio.o(i.GPIO_EXTILineConfig) for GPIO_EXTILineConfig
    key.o(i.cm_key_init) refers to stm32f10x_exti.o(i.EXTI_Init) for EXTI_Init
    key.o(i.cm_key_init) refers to misc.o(i.NVIC_Init) for NVIC_Init
    adc.o(i.Adc_Init) refers to stm32f10x_rcc.o(i.RCC_APB2PeriphClockCmd) for RCC_APB2PeriphClockCmd
    adc.o(i.Adc_Init) refers to stm32f10x_rcc.o(i.RCC_ADCCLKConfig) for RCC_ADCCLKConfig
    adc.o(i.Adc_Init) refers to stm32f10x_gpio.o(i.GPIO_Init) for GPIO_Init
    adc.o(i.Adc_Init) refers to stm32f10x_adc.o(i.ADC_DeInit) for ADC_DeInit
    adc.o(i.Adc_Init) refers to stm32f10x_adc.o(i.ADC_Init) for ADC_Init
    adc.o(i.Adc_Init) refers to stm32f10x_adc.o(i.ADC_Cmd) for ADC_Cmd
    adc.o(i.Adc_Init) refers to stm32f10x_adc.o(i.ADC_ResetCalibration) for ADC_ResetCalibration
    adc.o(i.Adc_Init) refers to stm32f10x_adc.o(i.ADC_GetResetCalibrationStatus) for ADC_GetResetCalibrationStatus
    adc.o(i.Adc_Init) refers to stm32f10x_adc.o(i.ADC_StartCalibration) for ADC_StartCalibration
    adc.o(i.Adc_Init) refers to stm32f10x_adc.o(i.ADC_GetCalibrationStatus) for ADC_GetCalibrationStatus
    adc.o(i.Get_Adc) refers to stm32f10x_adc.o(i.ADC_RegularChannelConfig) for ADC_RegularChannelConfig
    adc.o(i.Get_Adc) refers to stm32f10x_adc.o(i.ADC_SoftwareStartConvCmd) for ADC_SoftwareStartConvCmd
    adc.o(i.Get_Adc) refers to stm32f10x_adc.o(i.ADC_GetFlagStatus) for ADC_GetFlagStatus
    adc.o(i.Get_Adc) refers to stm32f10x_adc.o(i.ADC_GetConversionValue) for ADC_GetConversionValue
    adc.o(i.Get_Adc_Average) refers to adc.o(i.Get_Adc) for Get_Adc
    adc.o(i.Get_Adc_Average) refers to delay.o(i.delay_ms) for delay_ms
    adc.o(i.cm_getBatteryVol) refers to adc.o(i.Get_Adc_Average) for Get_Adc_Average
    adc.o(i.cm_getBatteryVol) refers to ffltui.o(.text) for __aeabi_ui2f
    adc.o(i.cm_getBatteryVol) refers to f2d.o(.text) for __aeabi_f2d
    adc.o(i.cm_getBatteryVol) refers to dmul.o(.text) for __aeabi_dmul
    adc.o(i.cm_getBatteryVol) refers to d2f.o(.text) for __aeabi_d2f
    bluetooth.o(i._CMIOT_BLE_DataProcess) refers to memseta.o(.text) for __aeabi_memclr4
    bluetooth.o(i._CMIOT_BLE_DataProcess) refers to common.o(i._CMIOT_Debug) for _CMIOT_Debug
    bluetooth.o(i._CMIOT_BLE_DataProcess) refers to strstr.o(.text) for strstr
    bluetooth.o(i._CMIOT_BLE_DataProcess) refers to usart.o(i._CMIOT_Uart_send) for _CMIOT_Uart_send
    bluetooth.o(i._CMIOT_BLE_DataProcess) refers to memcpya.o(.text) for __aeabi_memcpy
    bluetooth.o(i._CMIOT_BLE_DataProcess) refers to strcmp.o(.text) for strcmp
    bluetooth.o(i._CMIOT_BLE_DataProcess) refers to bluetooth.o(i._CMIOT_BLE_RSP_deviceInfo) for _CMIOT_BLE_RSP_deviceInfo
    bluetooth.o(i._CMIOT_BLE_DataProcess) refers to bluetooth.o(i._CMIOT_BLE_RSP_radioInfo) for _CMIOT_BLE_RSP_radioInfo
    bluetooth.o(i._CMIOT_BLE_DataProcess) refers to bluetooth.o(i._CMIOT_BLE_RSP_attachTime) for _CMIOT_BLE_RSP_attachTime
    bluetooth.o(i._CMIOT_BLE_DataProcess) refers to bluetooth.o(i._CMIOT_BLE_RSP_pingDelay) for _CMIOT_BLE_RSP_pingDelay
    bluetooth.o(i._CMIOT_BLE_DataProcess) refers to bluetooth.o(i._CMIOT_BLE_RSP_comprehensiveTest) for _CMIOT_BLE_RSP_comprehensiveTest
    bluetooth.o(i._CMIOT_BLE_DataProcess) refers to common.o(i._CMIOT_Str_StartWith) for _CMIOT_Str_StartWith
    bluetooth.o(i._CMIOT_BLE_DataProcess) refers to common.o(i._CMIOT_Str_EndWith) for _CMIOT_Str_EndWith
    bluetooth.o(i._CMIOT_BLE_DataProcess) refers to bluetooth.o(.constdata) for __func__
    bluetooth.o(i._CMIOT_BLE_DataProcess) refers to bluetooth.o(.bss) for UART_BLE_RxBuffer
    bluetooth.o(i._CMIOT_BLE_DataProcess) refers to bluetooth.o(.data) for UART_BLE_RxBufferLen
    bluetooth.o(i._CMIOT_BLE_DataProcess) refers to m5310.o(.bss) for UART_M5310_RxBuffer
    bluetooth.o(i._CMIOT_BLE_EnterPassthroughMode) refers to memcpya.o(.text) for __aeabi_memcpy4
    bluetooth.o(i._CMIOT_BLE_EnterPassthroughMode) refers to common.o(i._CMIOT_Debug) for _CMIOT_Debug
    bluetooth.o(i._CMIOT_BLE_EnterPassthroughMode) refers to bluetooth.o(i._CMIOT_ExecuteBLEAtCmd) for _CMIOT_ExecuteBLEAtCmd
    bluetooth.o(i._CMIOT_BLE_EnterPassthroughMode) refers to bluetooth.o(.constdata) for .constdata
    bluetooth.o(i._CMIOT_BLE_ExitPassthroughMode) refers to memcpya.o(.text) for __aeabi_memcpy4
    bluetooth.o(i._CMIOT_BLE_ExitPassthroughMode) refers to common.o(i._CMIOT_Debug) for _CMIOT_Debug
    bluetooth.o(i._CMIOT_BLE_ExitPassthroughMode) refers to bluetooth.o(i._CMIOT_ExecuteBLEAtCmd) for _CMIOT_ExecuteBLEAtCmd
    bluetooth.o(i._CMIOT_BLE_ExitPassthroughMode) refers to bluetooth.o(.constdata) for .constdata
    bluetooth.o(i._CMIOT_BLE_Init) refers to common.o(i._CMIOT_Debug) for _CMIOT_Debug
    bluetooth.o(i._CMIOT_BLE_Init) refers to timers.o(i.xTimerCreate) for xTimerCreate
    bluetooth.o(i._CMIOT_BLE_Init) refers to bluetooth.o(i._CMIOT_BLE_ExitPassthroughMode) for _CMIOT_BLE_ExitPassthroughMode
    bluetooth.o(i._CMIOT_BLE_Init) refers to bluetooth.o(i._CMIOT_BLE_OffMaxPut) for _CMIOT_BLE_OffMaxPut
    bluetooth.o(i._CMIOT_BLE_Init) refers to bluetooth.o(i._CMIOT_BLE_SetPacketInterval) for _CMIOT_BLE_SetPacketInterval
    bluetooth.o(i._CMIOT_BLE_Init) refers to bluetooth.o(i._CMIOT_BLE_SetName) for _CMIOT_BLE_SetName
    bluetooth.o(i._CMIOT_BLE_Init) refers to bluetooth.o(i._CMIOT_BLE_Reboot) for _CMIOT_BLE_Reboot
    bluetooth.o(i._CMIOT_BLE_Init) refers to delay.o(i.delay_ms) for delay_ms
    bluetooth.o(i._CMIOT_BLE_Init) refers to bluetooth.o(.constdata) for __func__
    bluetooth.o(i._CMIOT_BLE_Init) refers to bluetooth.o(i._CMIOT_M5310Uartbuf2Ble) for _CMIOT_M5310Uartbuf2Ble
    bluetooth.o(i._CMIOT_BLE_Init) refers to bluetooth.o(.data) for bleAtExeTimer
    bluetooth.o(i._CMIOT_BLE_OffMaxPut) refers to memcpya.o(.text) for __aeabi_memcpy4
    bluetooth.o(i._CMIOT_BLE_OffMaxPut) refers to common.o(i._CMIOT_Debug) for _CMIOT_Debug
    bluetooth.o(i._CMIOT_BLE_OffMaxPut) refers to bluetooth.o(i._CMIOT_ExecuteBLEAtCmd) for _CMIOT_ExecuteBLEAtCmd
    bluetooth.o(i._CMIOT_BLE_OffMaxPut) refers to bluetooth.o(.constdata) for .constdata
    bluetooth.o(i._CMIOT_BLE_RSP_attachTime) refers to memseta.o(.text) for __aeabi_memclr4
    bluetooth.o(i._CMIOT_BLE_RSP_attachTime) refers to strcat.o(.text) for strcat
    bluetooth.o(i._CMIOT_BLE_RSP_attachTime) refers to common.o(i._CMIOT_Debug) for _CMIOT_Debug
    bluetooth.o(i._CMIOT_BLE_RSP_attachTime) refers to m5310.o(i._CMIOT_M5310_GetRegisterTime) for _CMIOT_M5310_GetRegisterTime
    bluetooth.o(i._CMIOT_BLE_RSP_attachTime) refers to printfa.o(i.__0sprintf) for __2sprintf
    bluetooth.o(i._CMIOT_BLE_RSP_attachTime) refers to strlen.o(.text) for strlen
    bluetooth.o(i._CMIOT_BLE_RSP_attachTime) refers to usart.o(i._CMIOT_Uart_send) for _CMIOT_Uart_send
    bluetooth.o(i._CMIOT_BLE_RSP_attachTime) refers to bluetooth.o(.constdata) for __func__
    bluetooth.o(i._CMIOT_BLE_RSP_attachTime) refers to bluetooth.o(.bss) for msg
    bluetooth.o(i._CMIOT_BLE_RSP_comprehensiveTest) refers to memseta.o(.text) for __aeabi_memclr4
    bluetooth.o(i._CMIOT_BLE_RSP_comprehensiveTest) refers to common.o(i._CMIOT_Debug) for _CMIOT_Debug
    bluetooth.o(i._CMIOT_BLE_RSP_comprehensiveTest) refers to strcat.o(.text) for strcat
    bluetooth.o(i._CMIOT_BLE_RSP_comprehensiveTest) refers to m5310.o(i._CMIOT_M5310_GetRegisterTime) for _CMIOT_M5310_GetRegisterTime
    bluetooth.o(i._CMIOT_BLE_RSP_comprehensiveTest) refers to printfa.o(i.__0sprintf) for __2sprintf
    bluetooth.o(i._CMIOT_BLE_RSP_comprehensiveTest) refers to m5310.o(i._CMIOT_GetNetworkDelay) for _CMIOT_GetNetworkDelay
    bluetooth.o(i._CMIOT_BLE_RSP_comprehensiveTest) refers to m5310.o(i._CMIOT_M5310_GetSignalstrength) for _CMIOT_M5310_GetSignalstrength
    bluetooth.o(i._CMIOT_BLE_RSP_comprehensiveTest) refers to m5310.o(i._CMIOT_M5310_GetUeState) for _CMIOT_M5310_GetUeState
    bluetooth.o(i._CMIOT_BLE_RSP_comprehensiveTest) refers to memcpya.o(.text) for __aeabi_memcpy4
    bluetooth.o(i._CMIOT_BLE_RSP_comprehensiveTest) refers to strlen.o(.text) for strlen
    bluetooth.o(i._CMIOT_BLE_RSP_comprehensiveTest) refers to usart.o(i._CMIOT_Uart_send) for _CMIOT_Uart_send
    bluetooth.o(i._CMIOT_BLE_RSP_comprehensiveTest) refers to bluetooth.o(.constdata) for __func__
    bluetooth.o(i._CMIOT_BLE_RSP_comprehensiveTest) refers to bluetooth.o(.bss) for msg
    bluetooth.o(i._CMIOT_BLE_RSP_deviceInfo) refers to memseta.o(.text) for __aeabi_memclr4
    bluetooth.o(i._CMIOT_BLE_RSP_deviceInfo) refers to common.o(i._CMIOT_Debug) for _CMIOT_Debug
    bluetooth.o(i._CMIOT_BLE_RSP_deviceInfo) refers to strcat.o(.text) for strcat
    bluetooth.o(i._CMIOT_BLE_RSP_deviceInfo) refers to m5310.o(i._CMIOT_GetModuleName) for _CMIOT_GetModuleName
    bluetooth.o(i._CMIOT_BLE_RSP_deviceInfo) refers to m5310.o(i._CMIOT_GetModuleVersion) for _CMIOT_GetModuleVersion
    bluetooth.o(i._CMIOT_BLE_RSP_deviceInfo) refers to m5310.o(i._CMIOT_GetICCID) for _CMIOT_GetICCID
    bluetooth.o(i._CMIOT_BLE_RSP_deviceInfo) refers to m5310.o(i._CMIOT_GetIMSI) for _CMIOT_GetIMSI
    bluetooth.o(i._CMIOT_BLE_RSP_deviceInfo) refers to m5310.o(i._CMIOT_GetIMEI) for _CMIOT_GetIMEI
    bluetooth.o(i._CMIOT_BLE_RSP_deviceInfo) refers to common.o(i.cm_getbuildVersion) for cm_getbuildVersion
    bluetooth.o(i._CMIOT_BLE_RSP_deviceInfo) refers to strlen.o(.text) for strlen
    bluetooth.o(i._CMIOT_BLE_RSP_deviceInfo) refers to usart.o(i._CMIOT_Uart_send) for _CMIOT_Uart_send
    bluetooth.o(i._CMIOT_BLE_RSP_deviceInfo) refers to bluetooth.o(.constdata) for __func__
    bluetooth.o(i._CMIOT_BLE_RSP_deviceInfo) refers to bluetooth.o(.bss) for msg
    bluetooth.o(i._CMIOT_BLE_RSP_pingDelay) refers to memseta.o(.text) for __aeabi_memclr4
    bluetooth.o(i._CMIOT_BLE_RSP_pingDelay) refers to common.o(i._CMIOT_Debug) for _CMIOT_Debug
    bluetooth.o(i._CMIOT_BLE_RSP_pingDelay) refers to strcat.o(.text) for strcat
    bluetooth.o(i._CMIOT_BLE_RSP_pingDelay) refers to m5310.o(i._CMIOT_GetNetworkDelay) for _CMIOT_GetNetworkDelay
    bluetooth.o(i._CMIOT_BLE_RSP_pingDelay) refers to printfa.o(i.__0sprintf) for __2sprintf
    bluetooth.o(i._CMIOT_BLE_RSP_pingDelay) refers to strlen.o(.text) for strlen
    bluetooth.o(i._CMIOT_BLE_RSP_pingDelay) refers to usart.o(i._CMIOT_Uart_send) for _CMIOT_Uart_send
    bluetooth.o(i._CMIOT_BLE_RSP_pingDelay) refers to bluetooth.o(.constdata) for __func__
    bluetooth.o(i._CMIOT_BLE_RSP_pingDelay) refers to bluetooth.o(.bss) for msg
    bluetooth.o(i._CMIOT_BLE_RSP_radioInfo) refers to memseta.o(.text) for __aeabi_memclr4
    bluetooth.o(i._CMIOT_BLE_RSP_radioInfo) refers to common.o(i._CMIOT_Debug) for _CMIOT_Debug
    bluetooth.o(i._CMIOT_BLE_RSP_radioInfo) refers to m5310.o(i._CMIOT_GetNetworkDelay) for _CMIOT_GetNetworkDelay
    bluetooth.o(i._CMIOT_BLE_RSP_radioInfo) refers to strcat.o(.text) for strcat
    bluetooth.o(i._CMIOT_BLE_RSP_radioInfo) refers to m5310.o(i._CMIOT_M5310_GetSignalstrength) for _CMIOT_M5310_GetSignalstrength
    bluetooth.o(i._CMIOT_BLE_RSP_radioInfo) refers to printfa.o(i.__0sprintf) for __2sprintf
    bluetooth.o(i._CMIOT_BLE_RSP_radioInfo) refers to m5310.o(i._CMIOT_M5310_GetUeState) for _CMIOT_M5310_GetUeState
    bluetooth.o(i._CMIOT_BLE_RSP_radioInfo) refers to memcpya.o(.text) for __aeabi_memcpy4
    bluetooth.o(i._CMIOT_BLE_RSP_radioInfo) refers to m5310.o(i._CMIOT_GetNB_Band) for _CMIOT_GetNB_Band
    bluetooth.o(i._CMIOT_BLE_RSP_radioInfo) refers to m5310.o(i._CMIOT_Get_PSM_TIMER_Value) for _CMIOT_Get_PSM_TIMER_Value
    bluetooth.o(i._CMIOT_BLE_RSP_radioInfo) refers to m5310.o(i._CMIOT_GetPLMN) for _CMIOT_GetPLMN
    bluetooth.o(i._CMIOT_BLE_RSP_radioInfo) refers to strlen.o(.text) for strlen
    bluetooth.o(i._CMIOT_BLE_RSP_radioInfo) refers to usart.o(i._CMIOT_Uart_send) for _CMIOT_Uart_send
    bluetooth.o(i._CMIOT_BLE_RSP_radioInfo) refers to bluetooth.o(.constdata) for __func__
    bluetooth.o(i._CMIOT_BLE_RSP_radioInfo) refers to bluetooth.o(.bss) for msg
    bluetooth.o(i._CMIOT_BLE_Reboot) refers to memcpya.o(.text) for __aeabi_memcpy4
    bluetooth.o(i._CMIOT_BLE_Reboot) refers to common.o(i._CMIOT_Debug) for _CMIOT_Debug
    bluetooth.o(i._CMIOT_BLE_Reboot) refers to bluetooth.o(i._CMIOT_ExecuteBLEAtCmd) for _CMIOT_ExecuteBLEAtCmd
    bluetooth.o(i._CMIOT_BLE_Reboot) refers to strstr.o(.text) for strstr
    bluetooth.o(i._CMIOT_BLE_Reboot) refers to memseta.o(.text) for __aeabi_memclr
    bluetooth.o(i._CMIOT_BLE_Reboot) refers to delay.o(i.delay_ms) for delay_ms
    bluetooth.o(i._CMIOT_BLE_Reboot) refers to bluetooth.o(.constdata) for .constdata
    bluetooth.o(i._CMIOT_BLE_Reboot) refers to bluetooth.o(.bss) for UART_BLE_RxBuffer
    bluetooth.o(i._CMIOT_BLE_Reboot) refers to bluetooth.o(.data) for UART_BLE_RxBufferLen
    bluetooth.o(i._CMIOT_BLE_SetName) refers to memcpya.o(.text) for __aeabi_memcpy4
    bluetooth.o(i._CMIOT_BLE_SetName) refers to memseta.o(.text) for __aeabi_memclr4
    bluetooth.o(i._CMIOT_BLE_SetName) refers to common.o(i._CMIOT_Debug) for _CMIOT_Debug
    bluetooth.o(i._CMIOT_BLE_SetName) refers to m5310.o(i._CMIOT_GetIMEI) for _CMIOT_GetIMEI
    bluetooth.o(i._CMIOT_BLE_SetName) refers to strcat.o(.text) for strcat
    bluetooth.o(i._CMIOT_BLE_SetName) refers to strlen.o(.text) for strlen
    bluetooth.o(i._CMIOT_BLE_SetName) refers to bluetooth.o(i._CMIOT_ExecuteBLEAtCmd) for _CMIOT_ExecuteBLEAtCmd
    bluetooth.o(i._CMIOT_BLE_SetName) refers to bluetooth.o(.constdata) for .constdata
    bluetooth.o(i._CMIOT_BLE_SetPacketInterval) refers to memcpya.o(.text) for __aeabi_memcpy4
    bluetooth.o(i._CMIOT_BLE_SetPacketInterval) refers to common.o(i._CMIOT_Debug) for _CMIOT_Debug
    bluetooth.o(i._CMIOT_BLE_SetPacketInterval) refers to bluetooth.o(i._CMIOT_ExecuteBLEAtCmd) for _CMIOT_ExecuteBLEAtCmd
    bluetooth.o(i._CMIOT_BLE_SetPacketInterval) refers to bluetooth.o(.constdata) for .constdata
    bluetooth.o(i._CMIOT_BleReset) refers to delay.o(i.delay_ms) for delay_ms
    bluetooth.o(i._CMIOT_BleResetGpioInit) refers to stm32f10x_rcc.o(i.RCC_APB2PeriphClockCmd) for RCC_APB2PeriphClockCmd
    bluetooth.o(i._CMIOT_BleResetGpioInit) refers to stm32f10x_gpio.o(i.GPIO_Init) for GPIO_Init
    bluetooth.o(i._CMIOT_ExecuteBLEAtCmd) refers to memseta.o(.text) for __aeabi_memclr
    bluetooth.o(i._CMIOT_ExecuteBLEAtCmd) refers to strlen.o(.text) for strlen
    bluetooth.o(i._CMIOT_ExecuteBLEAtCmd) refers to usart.o(i._CMIOT_Uart_send) for _CMIOT_Uart_send
    bluetooth.o(i._CMIOT_ExecuteBLEAtCmd) refers to common.o(i._CMIOT_Debug) for _CMIOT_Debug
    bluetooth.o(i._CMIOT_ExecuteBLEAtCmd) refers to strstr.o(.text) for strstr
    bluetooth.o(i._CMIOT_ExecuteBLEAtCmd) refers to delay.o(i.delay_ms) for delay_ms
    bluetooth.o(i._CMIOT_ExecuteBLEAtCmd) refers to bluetooth.o(.bss) for UART_BLE_RxBuffer
    bluetooth.o(i._CMIOT_ExecuteBLEAtCmd) refers to bluetooth.o(.data) for UART_BLE_RxBufferLen
    bluetooth.o(i._CMIOT_ExecuteBLEAtCmd) refers to bluetooth.o(.constdata) for __func__
    bluetooth.o(i._CMIOT_GetBleConnectedState) refers to memcpya.o(.text) for __aeabi_memcpy4
    bluetooth.o(i._CMIOT_GetBleConnectedState) refers to common.o(i._CMIOT_Debug) for _CMIOT_Debug
    bluetooth.o(i._CMIOT_GetBleConnectedState) refers to bluetooth.o(i._CMIOT_ExecuteBLEAtCmd) for _CMIOT_ExecuteBLEAtCmd
    bluetooth.o(i._CMIOT_GetBleConnectedState) refers to strstr.o(.text) for strstr
    bluetooth.o(i._CMIOT_GetBleConnectedState) refers to strncmp.o(.text) for strncmp
    bluetooth.o(i._CMIOT_GetBleConnectedState) refers to bluetooth.o(.constdata) for .constdata
    bluetooth.o(i._CMIOT_GetBleConnectedState) refers to bluetooth.o(.bss) for UART_BLE_RxBuffer
    bluetooth.o(i._CMIOT_M5310Uartbuf2Ble) refers to common.o(i._CMIOT_Debug) for _CMIOT_Debug
    bluetooth.o(i._CMIOT_M5310Uartbuf2Ble) refers to usart.o(i._CMIOT_Uart_send) for _CMIOT_Uart_send
    bluetooth.o(i._CMIOT_M5310Uartbuf2Ble) refers to memseta.o(.text) for __aeabi_memclr
    bluetooth.o(i._CMIOT_M5310Uartbuf2Ble) refers to bluetooth.o(.constdata) for __func__
    bluetooth.o(i._CMIOT_M5310Uartbuf2Ble) refers to m5310.o(.data) for UART_M5310_RxBufferLen
    bluetooth.o(i._CMIOT_M5310Uartbuf2Ble) refers to m5310.o(.bss) for UART_M5310_RxBuffer
    floor.o(i.__softfp_floor) refers (Special) to iusefp.o(.text) for __I$use$fp
    floor.o(i.__softfp_floor) refers to floor.o(i.floor) for floor
    floor.o(i.floor) refers (Special) to iusefp.o(.text) for __I$use$fp
    floor.o(i.floor) refers to dadd.o(.text) for __aeabi_dadd
    floor.o(i.floor) refers to cdrcmple.o(.text) for __aeabi_cdrcmple
    entry.o(.ARM.Collect$$$$00000000) refers (Special) to entry10a.o(.ARM.Collect$$$$0000000D) for __rt_final_cpp
    entry.o(.ARM.Collect$$$$00000000) refers (Special) to entry11a.o(.ARM.Collect$$$$0000000F) for __rt_final_exit
    entry.o(.ARM.Collect$$$$00000000) refers (Special) to entry7b.o(.ARM.Collect$$$$00000008) for _main_clock
    entry.o(.ARM.Collect$$$$00000000) refers (Special) to entry8b.o(.ARM.Collect$$$$0000000A) for _main_cpp_init
    entry.o(.ARM.Collect$$$$00000000) refers (Special) to entry9a.o(.ARM.Collect$$$$0000000B) for _main_init
    entry.o(.ARM.Collect$$$$00000000) refers (Special) to entry5.o(.ARM.Collect$$$$00000004) for _main_scatterload
    entry.o(.ARM.Collect$$$$00000000) refers (Special) to entry2.o(.ARM.Collect$$$$00000001) for _main_stk
    strtok.o(.text) refers to strtok.o(.data) for .data
    strtok_r.o(.text) refers to strtok_r.o(.data) for .data
    printfb.o(i.__0fprintf$bare) refers to printfb.o(i._printf_core) for _printf_core
    printfb.o(i.__0fprintf$bare) refers to fputc.o(i.fputc) for fputc
    printfb.o(i.__0printf$bare) refers to printfb.o(i._printf_core) for _printf_core
    printfb.o(i.__0printf$bare) refers to fputc.o(i.fputc) for fputc
    printfb.o(i.__0printf$bare) refers to stdout.o(.data) for __stdout
    printfb.o(i.__0snprintf$bare) refers to printfb.o(i._printf_core) for _printf_core
    printfb.o(i.__0snprintf$bare) refers to printfb.o(i._snputc) for _snputc
    printfb.o(i.__0sprintf$bare) refers to printfb.o(i._printf_core) for _printf_core
    printfb.o(i.__0sprintf$bare) refers to printfb.o(i._sputc) for _sputc
    printfb.o(i.__0vfprintf$bare) refers to printfb.o(i._printf_core) for _printf_core
    printfb.o(i.__0vfprintf$bare) refers to fputc.o(i.fputc) for fputc
    printfb.o(i.__0vprintf$bare) refers to printfb.o(i._printf_core) for _printf_core
    printfb.o(i.__0vprintf$bare) refers to fputc.o(i.fputc) for fputc
    printfb.o(i.__0vprintf$bare) refers to stdout.o(.data) for __stdout
    printfb.o(i.__0vsnprintf$bare) refers to printfb.o(i._printf_core) for _printf_core
    printfb.o(i.__0vsnprintf$bare) refers to printfb.o(i._snputc) for _snputc
    printfb.o(i.__0vsprintf$bare) refers to printfb.o(i._printf_core) for _printf_core
    printfb.o(i.__0vsprintf$bare) refers to printfb.o(i._sputc) for _sputc
    printf0.o(i.__0fprintf$0) refers to printf0.o(i._printf_core) for _printf_core
    printf0.o(i.__0fprintf$0) refers to fputc.o(i.fputc) for fputc
    printf0.o(i.__0printf$0) refers to printf0.o(i._printf_core) for _printf_core
    printf0.o(i.__0printf$0) refers to fputc.o(i.fputc) for fputc
    printf0.o(i.__0printf$0) refers to stdout.o(.data) for __stdout
    printf0.o(i.__0snprintf$0) refers to printf0.o(i._printf_core) for _printf_core
    printf0.o(i.__0snprintf$0) refers to printf0.o(i._snputc) for _snputc
    printf0.o(i.__0sprintf$0) refers to printf0.o(i._printf_core) for _printf_core
    printf0.o(i.__0sprintf$0) refers to printf0.o(i._sputc) for _sputc
    printf0.o(i.__0vfprintf$0) refers to printf0.o(i._printf_core) for _printf_core
    printf0.o(i.__0vfprintf$0) refers to fputc.o(i.fputc) for fputc
    printf0.o(i.__0vprintf$0) refers to printf0.o(i._printf_core) for _printf_core
    printf0.o(i.__0vprintf$0) refers to fputc.o(i.fputc) for fputc
    printf0.o(i.__0vprintf$0) refers to stdout.o(.data) for __stdout
    printf0.o(i.__0vsnprintf$0) refers to printf0.o(i._printf_core) for _printf_core
    printf0.o(i.__0vsnprintf$0) refers to printf0.o(i._snputc) for _snputc
    printf0.o(i.__0vsprintf$0) refers to printf0.o(i._printf_core) for _printf_core
    printf0.o(i.__0vsprintf$0) refers to printf0.o(i._sputc) for _sputc
    printf1.o(i.__0fprintf$1) refers to printf1.o(i._printf_core) for _printf_core
    printf1.o(i.__0fprintf$1) refers to fputc.o(i.fputc) for fputc
    printf1.o(i.__0printf$1) refers to printf1.o(i._printf_core) for _printf_core
    printf1.o(i.__0printf$1) refers to fputc.o(i.fputc) for fputc
    printf1.o(i.__0printf$1) refers to stdout.o(.data) for __stdout
    printf1.o(i.__0snprintf$1) refers to printf1.o(i._printf_core) for _printf_core
    printf1.o(i.__0snprintf$1) refers to printf1.o(i._snputc) for _snputc
    printf1.o(i.__0sprintf$1) refers to printf1.o(i._printf_core) for _printf_core
    printf1.o(i.__0sprintf$1) refers to printf1.o(i._sputc) for _sputc
    printf1.o(i.__0vfprintf$1) refers to printf1.o(i._printf_core) for _printf_core
    printf1.o(i.__0vfprintf$1) refers to fputc.o(i.fputc) for fputc
    printf1.o(i.__0vprintf$1) refers to printf1.o(i._printf_core) for _printf_core
    printf1.o(i.__0vprintf$1) refers to fputc.o(i.fputc) for fputc
    printf1.o(i.__0vprintf$1) refers to stdout.o(.data) for __stdout
    printf1.o(i.__0vsnprintf$1) refers to printf1.o(i._printf_core) for _printf_core
    printf1.o(i.__0vsnprintf$1) refers to printf1.o(i._snputc) for _snputc
    printf1.o(i.__0vsprintf$1) refers to printf1.o(i._printf_core) for _printf_core
    printf1.o(i.__0vsprintf$1) refers to printf1.o(i._sputc) for _sputc
    printf1.o(i._printf_core) refers to uidiv.o(.text) for __aeabi_uidivmod
    printf2.o(i.__0fprintf$2) refers to printf2.o(i._printf_core) for _printf_core
    printf2.o(i.__0fprintf$2) refers to fputc.o(i.fputc) for fputc
    printf2.o(i.__0printf$2) refers to printf2.o(i._printf_core) for _printf_core
    printf2.o(i.__0printf$2) refers to fputc.o(i.fputc) for fputc
    printf2.o(i.__0printf$2) refers to stdout.o(.data) for __stdout
    printf2.o(i.__0snprintf$2) refers to printf2.o(i._printf_core) for _printf_core
    printf2.o(i.__0snprintf$2) refers to printf2.o(i._snputc) for _snputc
    printf2.o(i.__0sprintf$2) refers to printf2.o(i._printf_core) for _printf_core
    printf2.o(i.__0sprintf$2) refers to printf2.o(i._sputc) for _sputc
    printf2.o(i.__0vfprintf$2) refers to printf2.o(i._printf_core) for _printf_core
    printf2.o(i.__0vfprintf$2) refers to fputc.o(i.fputc) for fputc
    printf2.o(i.__0vprintf$2) refers to printf2.o(i._printf_core) for _printf_core
    printf2.o(i.__0vprintf$2) refers to fputc.o(i.fputc) for fputc
    printf2.o(i.__0vprintf$2) refers to stdout.o(.data) for __stdout
    printf2.o(i.__0vsnprintf$2) refers to printf2.o(i._printf_core) for _printf_core
    printf2.o(i.__0vsnprintf$2) refers to printf2.o(i._snputc) for _snputc
    printf2.o(i.__0vsprintf$2) refers to printf2.o(i._printf_core) for _printf_core
    printf2.o(i.__0vsprintf$2) refers to printf2.o(i._sputc) for _sputc
    printf3.o(i.__0fprintf$3) refers to printf3.o(i._printf_core) for _printf_core
    printf3.o(i.__0fprintf$3) refers to fputc.o(i.fputc) for fputc
    printf3.o(i.__0printf$3) refers to printf3.o(i._printf_core) for _printf_core
    printf3.o(i.__0printf$3) refers to fputc.o(i.fputc) for fputc
    printf3.o(i.__0printf$3) refers to stdout.o(.data) for __stdout
    printf3.o(i.__0snprintf$3) refers to printf3.o(i._printf_core) for _printf_core
    printf3.o(i.__0snprintf$3) refers to printf3.o(i._snputc) for _snputc
    printf3.o(i.__0sprintf$3) refers to printf3.o(i._printf_core) for _printf_core
    printf3.o(i.__0sprintf$3) refers to printf3.o(i._sputc) for _sputc
    printf3.o(i.__0vfprintf$3) refers to printf3.o(i._printf_core) for _printf_core
    printf3.o(i.__0vfprintf$3) refers to fputc.o(i.fputc) for fputc
    printf3.o(i.__0vprintf$3) refers to printf3.o(i._printf_core) for _printf_core
    printf3.o(i.__0vprintf$3) refers to fputc.o(i.fputc) for fputc
    printf3.o(i.__0vprintf$3) refers to stdout.o(.data) for __stdout
    printf3.o(i.__0vsnprintf$3) refers to printf3.o(i._printf_core) for _printf_core
    printf3.o(i.__0vsnprintf$3) refers to printf3.o(i._snputc) for _snputc
    printf3.o(i.__0vsprintf$3) refers to printf3.o(i._printf_core) for _printf_core
    printf3.o(i.__0vsprintf$3) refers to printf3.o(i._sputc) for _sputc
    printf3.o(i._printf_core) refers to uidiv.o(.text) for __aeabi_uidivmod
    printf4.o(i.__0fprintf$4) refers to printf4.o(i._printf_core) for _printf_core
    printf4.o(i.__0fprintf$4) refers to fputc.o(i.fputc) for fputc
    printf4.o(i.__0printf$4) refers to printf4.o(i._printf_core) for _printf_core
    printf4.o(i.__0printf$4) refers to fputc.o(i.fputc) for fputc
    printf4.o(i.__0printf$4) refers to stdout.o(.data) for __stdout
    printf4.o(i.__0snprintf$4) refers to printf4.o(i._printf_core) for _printf_core
    printf4.o(i.__0snprintf$4) refers to printf4.o(i._snputc) for _snputc
    printf4.o(i.__0sprintf$4) refers to printf4.o(i._printf_core) for _printf_core
    printf4.o(i.__0sprintf$4) refers to printf4.o(i._sputc) for _sputc
    printf4.o(i.__0vfprintf$4) refers to printf4.o(i._printf_core) for _printf_core
    printf4.o(i.__0vfprintf$4) refers to fputc.o(i.fputc) for fputc
    printf4.o(i.__0vprintf$4) refers to printf4.o(i._printf_core) for _printf_core
    printf4.o(i.__0vprintf$4) refers to fputc.o(i.fputc) for fputc
    printf4.o(i.__0vprintf$4) refers to stdout.o(.data) for __stdout
    printf4.o(i.__0vsnprintf$4) refers to printf4.o(i._printf_core) for _printf_core
    printf4.o(i.__0vsnprintf$4) refers to printf4.o(i._snputc) for _snputc
    printf4.o(i.__0vsprintf$4) refers to printf4.o(i._printf_core) for _printf_core
    printf4.o(i.__0vsprintf$4) refers to printf4.o(i._sputc) for _sputc
    printf4.o(i._printf_core) refers to uldiv.o(.text) for __aeabi_uldivmod
    printf5.o(i.__0fprintf$5) refers to printf5.o(i._printf_core) for _printf_core
    printf5.o(i.__0fprintf$5) refers to fputc.o(i.fputc) for fputc
    printf5.o(i.__0printf$5) refers to printf5.o(i._printf_core) for _printf_core
    printf5.o(i.__0printf$5) refers to fputc.o(i.fputc) for fputc
    printf5.o(i.__0printf$5) refers to stdout.o(.data) for __stdout
    printf5.o(i.__0snprintf$5) refers to printf5.o(i._printf_core) for _printf_core
    printf5.o(i.__0snprintf$5) refers to printf5.o(i._snputc) for _snputc
    printf5.o(i.__0sprintf$5) refers to printf5.o(i._printf_core) for _printf_core
    printf5.o(i.__0sprintf$5) refers to printf5.o(i._sputc) for _sputc
    printf5.o(i.__0vfprintf$5) refers to printf5.o(i._printf_core) for _printf_core
    printf5.o(i.__0vfprintf$5) refers to fputc.o(i.fputc) for fputc
    printf5.o(i.__0vprintf$5) refers to printf5.o(i._printf_core) for _printf_core
    printf5.o(i.__0vprintf$5) refers to fputc.o(i.fputc) for fputc
    printf5.o(i.__0vprintf$5) refers to stdout.o(.data) for __stdout
    printf5.o(i.__0vsnprintf$5) refers to printf5.o(i._printf_core) for _printf_core
    printf5.o(i.__0vsnprintf$5) refers to printf5.o(i._snputc) for _snputc
    printf5.o(i.__0vsprintf$5) refers to printf5.o(i._printf_core) for _printf_core
    printf5.o(i.__0vsprintf$5) refers to printf5.o(i._sputc) for _sputc
    printf5.o(i._printf_core) refers to uldiv.o(.text) for __aeabi_uldivmod
    printf6.o(i.__0fprintf$6) refers to printf6.o(i._printf_core) for _printf_core
    printf6.o(i.__0fprintf$6) refers to fputc.o(i.fputc) for fputc
    printf6.o(i.__0printf$6) refers to printf6.o(i._printf_core) for _printf_core
    printf6.o(i.__0printf$6) refers to fputc.o(i.fputc) for fputc
    printf6.o(i.__0printf$6) refers to stdout.o(.data) for __stdout
    printf6.o(i.__0snprintf$6) refers to printf6.o(i._printf_core) for _printf_core
    printf6.o(i.__0snprintf$6) refers to printf6.o(i._snputc) for _snputc
    printf6.o(i.__0sprintf$6) refers to printf6.o(i._printf_core) for _printf_core
    printf6.o(i.__0sprintf$6) refers to printf6.o(i._sputc) for _sputc
    printf6.o(i.__0vfprintf$6) refers to printf6.o(i._printf_core) for _printf_core
    printf6.o(i.__0vfprintf$6) refers to fputc.o(i.fputc) for fputc
    printf6.o(i.__0vprintf$6) refers to printf6.o(i._printf_core) for _printf_core
    printf6.o(i.__0vprintf$6) refers to fputc.o(i.fputc) for fputc
    printf6.o(i.__0vprintf$6) refers to stdout.o(.data) for __stdout
    printf6.o(i.__0vsnprintf$6) refers to printf6.o(i._printf_core) for _printf_core
    printf6.o(i.__0vsnprintf$6) refers to printf6.o(i._snputc) for _snputc
    printf6.o(i.__0vsprintf$6) refers to printf6.o(i._printf_core) for _printf_core
    printf6.o(i.__0vsprintf$6) refers to printf6.o(i._sputc) for _sputc
    printf6.o(i._printf_core) refers to printf6.o(i._printf_pre_padding) for _printf_pre_padding
    printf6.o(i._printf_core) refers to uidiv.o(.text) for __aeabi_uidivmod
    printf6.o(i._printf_core) refers to printf6.o(i._printf_post_padding) for _printf_post_padding
    printf7.o(i.__0fprintf$7) refers to printf7.o(i._printf_core) for _printf_core
    printf7.o(i.__0fprintf$7) refers to fputc.o(i.fputc) for fputc
    printf7.o(i.__0printf$7) refers to printf7.o(i._printf_core) for _printf_core
    printf7.o(i.__0printf$7) refers to fputc.o(i.fputc) for fputc
    printf7.o(i.__0printf$7) refers to stdout.o(.data) for __stdout
    printf7.o(i.__0snprintf$7) refers to printf7.o(i._printf_core) for _printf_core
    printf7.o(i.__0snprintf$7) refers to printf7.o(i._snputc) for _snputc
    printf7.o(i.__0sprintf$7) refers to printf7.o(i._printf_core) for _printf_core
    printf7.o(i.__0sprintf$7) refers to printf7.o(i._sputc) for _sputc
    printf7.o(i.__0vfprintf$7) refers to printf7.o(i._printf_core) for _printf_core
    printf7.o(i.__0vfprintf$7) refers to fputc.o(i.fputc) for fputc
    printf7.o(i.__0vprintf$7) refers to printf7.o(i._printf_core) for _printf_core
    printf7.o(i.__0vprintf$7) refers to fputc.o(i.fputc) for fputc
    printf7.o(i.__0vprintf$7) refers to stdout.o(.data) for __stdout
    printf7.o(i.__0vsnprintf$7) refers to printf7.o(i._printf_core) for _printf_core
    printf7.o(i.__0vsnprintf$7) refers to printf7.o(i._snputc) for _snputc
    printf7.o(i.__0vsprintf$7) refers to printf7.o(i._printf_core) for _printf_core
    printf7.o(i.__0vsprintf$7) refers to printf7.o(i._sputc) for _sputc
    printf7.o(i._printf_core) refers to printf7.o(i._printf_pre_padding) for _printf_pre_padding
    printf7.o(i._printf_core) refers to uldiv.o(.text) for __aeabi_uldivmod
    printf7.o(i._printf_core) refers to printf7.o(i._printf_post_padding) for _printf_post_padding
    printf8.o(i.__0fprintf$8) refers to printf8.o(i._printf_core) for _printf_core
    printf8.o(i.__0fprintf$8) refers to fputc.o(i.fputc) for fputc
    printf8.o(i.__0printf$8) refers to printf8.o(i._printf_core) for _printf_core
    printf8.o(i.__0printf$8) refers to fputc.o(i.fputc) for fputc
    printf8.o(i.__0printf$8) refers to stdout.o(.data) for __stdout
    printf8.o(i.__0snprintf$8) refers to printf8.o(i._printf_core) for _printf_core
    printf8.o(i.__0snprintf$8) refers to printf8.o(i._snputc) for _snputc
    printf8.o(i.__0sprintf$8) refers to printf8.o(i._printf_core) for _printf_core
    printf8.o(i.__0sprintf$8) refers to printf8.o(i._sputc) for _sputc
    printf8.o(i.__0vfprintf$8) refers to printf8.o(i._printf_core) for _printf_core
    printf8.o(i.__0vfprintf$8) refers to fputc.o(i.fputc) for fputc
    printf8.o(i.__0vprintf$8) refers to printf8.o(i._printf_core) for _printf_core
    printf8.o(i.__0vprintf$8) refers to fputc.o(i.fputc) for fputc
    printf8.o(i.__0vprintf$8) refers to stdout.o(.data) for __stdout
    printf8.o(i.__0vsnprintf$8) refers to printf8.o(i._printf_core) for _printf_core
    printf8.o(i.__0vsnprintf$8) refers to printf8.o(i._snputc) for _snputc
    printf8.o(i.__0vsprintf$8) refers to printf8.o(i._printf_core) for _printf_core
    printf8.o(i.__0vsprintf$8) refers to printf8.o(i._sputc) for _sputc
    printf8.o(i._printf_core) refers to printf8.o(i._printf_pre_padding) for _printf_pre_padding
    printf8.o(i._printf_core) refers to uldiv.o(.text) for __aeabi_uldivmod
    printf8.o(i._printf_core) refers to printf8.o(i._printf_post_padding) for _printf_post_padding
    printfa.o(i.__0fprintf) refers (Special) to iusefp.o(.text) for __I$use$fp
    printfa.o(i.__0fprintf) refers to printfa.o(i._printf_core) for _printf_core
    printfa.o(i.__0fprintf) refers to fputc.o(i.fputc) for fputc
    printfa.o(i.__0printf) refers (Special) to iusefp.o(.text) for __I$use$fp
    printfa.o(i.__0printf) refers to printfa.o(i._printf_core) for _printf_core
    printfa.o(i.__0printf) refers to fputc.o(i.fputc) for fputc
    printfa.o(i.__0printf) refers to stdout.o(.data) for __stdout
    printfa.o(i.__0snprintf) refers (Special) to iusefp.o(.text) for __I$use$fp
    printfa.o(i.__0snprintf) refers to printfa.o(i._printf_core) for _printf_core
    printfa.o(i.__0snprintf) refers to printfa.o(i._snputc) for _snputc
    printfa.o(i.__0sprintf) refers (Special) to iusefp.o(.text) for __I$use$fp
    printfa.o(i.__0sprintf) refers to printfa.o(i._printf_core) for _printf_core
    printfa.o(i.__0sprintf) refers to printfa.o(i._sputc) for _sputc
    printfa.o(i.__0vfprintf) refers (Special) to iusefp.o(.text) for __I$use$fp
    printfa.o(i.__0vfprintf) refers to printfa.o(i._printf_core) for _printf_core
    printfa.o(i.__0vfprintf) refers to fputc.o(i.fputc) for fputc
    printfa.o(i.__0vprintf) refers (Special) to iusefp.o(.text) for __I$use$fp
    printfa.o(i.__0vprintf) refers to printfa.o(i._printf_core) for _printf_core
    printfa.o(i.__0vprintf) refers to fputc.o(i.fputc) for fputc
    printfa.o(i.__0vprintf) refers to stdout.o(.data) for __stdout
    printfa.o(i.__0vsnprintf) refers (Special) to iusefp.o(.text) for __I$use$fp
    printfa.o(i.__0vsnprintf) refers to printfa.o(i._printf_core) for _printf_core
    printfa.o(i.__0vsnprintf) refers to printfa.o(i._snputc) for _snputc
    printfa.o(i.__0vsprintf) refers (Special) to iusefp.o(.text) for __I$use$fp
    printfa.o(i.__0vsprintf) refers to printfa.o(i._printf_core) for _printf_core
    printfa.o(i.__0vsprintf) refers to printfa.o(i._sputc) for _sputc
    printfa.o(i._fp_digits) refers (Special) to iusefp.o(.text) for __I$use$fp
    printfa.o(i._fp_digits) refers to dmul.o(.text) for __aeabi_dmul
    printfa.o(i._fp_digits) refers to ddiv.o(.text) for __aeabi_ddiv
    printfa.o(i._fp_digits) refers to cdrcmple.o(.text) for __aeabi_cdrcmple
    printfa.o(i._fp_digits) refers to dadd.o(.text) for __aeabi_dadd
    printfa.o(i._fp_digits) refers to dfixul.o(.text) for __aeabi_d2ulz
    printfa.o(i._fp_digits) refers to uldiv.o(.text) for __aeabi_uldivmod
    printfa.o(i._printf_core) refers (Special) to iusefp.o(.text) for __I$use$fp
    printfa.o(i._printf_core) refers to printfa.o(i._printf_pre_padding) for _printf_pre_padding
    printfa.o(i._printf_core) refers to uldiv.o(.text) for __aeabi_uldivmod
    printfa.o(i._printf_core) refers to printfa.o(i._printf_post_padding) for _printf_post_padding
    printfa.o(i._printf_core) refers to printfa.o(i._fp_digits) for _fp_digits
    printfa.o(i._printf_core) refers to uidiv.o(.text) for __aeabi_uidivmod
    printfa.o(i._printf_post_padding) refers (Special) to iusefp.o(.text) for __I$use$fp
    printfa.o(i._printf_pre_padding) refers (Special) to iusefp.o(.text) for __I$use$fp
    printfa.o(i._snputc) refers (Special) to iusefp.o(.text) for __I$use$fp
    printfa.o(i._sputc) refers (Special) to iusefp.o(.text) for __I$use$fp
    fmul.o(.text) refers (Special) to iusefp.o(.text) for __I$use$fp
    fdiv.o(.text) refers (Special) to iusefp.o(.text) for __I$use$fp
    fdiv.o(.text) refers to fepilogue.o(.text) for _float_round
    dadd.o(.text) refers (Special) to iusefp.o(.text) for __I$use$fp
    dadd.o(.text) refers to llshl.o(.text) for __aeabi_llsl
    dadd.o(.text) refers to llsshr.o(.text) for __aeabi_lasr
    dadd.o(.text) refers to depilogue.o(.text) for _double_epilogue
    dmul.o(.text) refers (Special) to iusefp.o(.text) for __I$use$fp
    dmul.o(.text) refers to depilogue.o(.text) for _double_epilogue
    fflti.o(.text) refers (Special) to iusefp.o(.text) for __I$use$fp
    fflti.o(.text) refers to fepilogue.o(.text) for _float_epilogue
    ffltui.o(.text) refers (Special) to iusefp.o(.text) for __I$use$fp
    ffltui.o(.text) refers to fepilogue.o(.text) for _float_epilogue
    dfixui.o(.text) refers (Special) to iusefp.o(.text) for __I$use$fp
    dfixui.o(.text) refers to llushr.o(.text) for __aeabi_llsr
    f2d.o(.text) refers (Special) to iusefp.o(.text) for __I$use$fp
    cdrcmple.o(.text) refers (Special) to iusefp.o(.text) for __I$use$fp
    d2f.o(.text) refers (Special) to iusefp.o(.text) for __I$use$fp
    d2f.o(.text) refers to fepilogue.o(.text) for _float_round
    cfrcmple.o(.text) refers (Special) to iusefp.o(.text) for __I$use$fp
    entry2.o(.ARM.Collect$$$$00000001) refers to entry2.o(.ARM.Collect$$$$00002712) for __lit__00000000
    entry2.o(.ARM.Collect$$$$00002712) refers to startup_stm32f10x_hd.o(STACK) for __initial_sp
    entry2.o(__vectab_stack_and_reset_area) refers to startup_stm32f10x_hd.o(STACK) for __initial_sp
    entry2.o(__vectab_stack_and_reset_area) refers to entry.o(.ARM.Collect$$$$00000000) for __main
    entry5.o(.ARM.Collect$$$$00000004) refers to init.o(.text) for __scatterload
    entry9a.o(.ARM.Collect$$$$0000000B) refers to main.o(i.main) for main
    entry9b.o(.ARM.Collect$$$$0000000C) refers to main.o(i.main) for main
    fputc.o(i.fputc) refers (Special) to iusesemip.o(.text) for __I$use$semihosting$fputc
    fputc.o(i.fputc) refers (Special) to semi.o(.text) for __semihosting_library_function
    uldiv.o(.text) refers to llushr.o(.text) for __aeabi_llsr
    uldiv.o(.text) refers to llshl.o(.text) for __aeabi_llsl
    depilogue.o(.text) refers to llshl.o(.text) for __aeabi_llsl
    depilogue.o(.text) refers to llushr.o(.text) for __aeabi_llsr
    ddiv.o(.text) refers to depilogue.o(.text) for _double_round
    dfixul.o(.text) refers to llushr.o(.text) for __aeabi_llsr
    dfixul.o(.text) refers to llshl.o(.text) for __aeabi_llsl
    init.o(.text) refers to entry5.o(.ARM.Collect$$$$00000004) for __main_after_scatterload
    st7789s.o(i.LCD_SetCursor) refers to st7789s.o(i.LCD_WR_REG) for LCD_WR_REG


==============================================================================

Removing Unused input sections from the image.

    Removing startup_stm32f10x_hd.o(HEAP), (512 bytes).
    Removing misc.o(i.NVIC_SetVectorTable), (20 bytes).
    Removing misc.o(i.NVIC_SystemLPConfig), (32 bytes).
    Removing stm32f10x_adc.o(i.ADC_AnalogWatchdogCmd), (20 bytes).
    Removing stm32f10x_adc.o(i.ADC_AnalogWatchdogSingleChannelConfig), (16 bytes).
    Removing stm32f10x_adc.o(i.ADC_AnalogWatchdogThresholdsConfig), (6 bytes).
    Removing stm32f10x_adc.o(i.ADC_AutoInjectedConvCmd), (22 bytes).
    Removing stm32f10x_adc.o(i.ADC_ClearFlag), (6 bytes).
    Removing stm32f10x_adc.o(i.ADC_ClearITPendingBit), (10 bytes).
    Removing stm32f10x_adc.o(i.ADC_DMACmd), (22 bytes).
    Removing stm32f10x_adc.o(i.ADC_DiscModeChannelCountConfig), (24 bytes).
    Removing stm32f10x_adc.o(i.ADC_DiscModeCmd), (22 bytes).
    Removing stm32f10x_adc.o(i.ADC_ExternalTrigConvCmd), (22 bytes).
    Removing stm32f10x_adc.o(i.ADC_ExternalTrigInjectedConvCmd), (22 bytes).
    Removing stm32f10x_adc.o(i.ADC_ExternalTrigInjectedConvConfig), (16 bytes).
    Removing stm32f10x_adc.o(i.ADC_GetDualModeConversionValue), (12 bytes).
    Removing stm32f10x_adc.o(i.ADC_GetITStatus), (36 bytes).
    Removing stm32f10x_adc.o(i.ADC_GetInjectedConversionValue), (28 bytes).
    Removing stm32f10x_adc.o(i.ADC_GetSoftwareStartConvStatus), (20 bytes).
    Removing stm32f10x_adc.o(i.ADC_GetSoftwareStartInjectedConvCmdStatus), (20 bytes).
    Removing stm32f10x_adc.o(i.ADC_ITConfig), (24 bytes).
    Removing stm32f10x_adc.o(i.ADC_InjectedChannelConfig), (130 bytes).
    Removing stm32f10x_adc.o(i.ADC_InjectedDiscModeCmd), (22 bytes).
    Removing stm32f10x_adc.o(i.ADC_InjectedSequencerLengthConfig), (24 bytes).
    Removing stm32f10x_adc.o(i.ADC_SetInjectedOffset), (20 bytes).
    Removing stm32f10x_adc.o(i.ADC_SoftwareStartInjectedConvCmd), (22 bytes).
    Removing stm32f10x_adc.o(i.ADC_StructInit), (18 bytes).
    Removing stm32f10x_adc.o(i.ADC_TempSensorVrefintCmd), (36 bytes).
    Removing stm32f10x_bkp.o(i.BKP_ClearFlag), (20 bytes).
    Removing stm32f10x_bkp.o(i.BKP_ClearITPendingBit), (20 bytes).
    Removing stm32f10x_bkp.o(i.BKP_DeInit), (16 bytes).
    Removing stm32f10x_bkp.o(i.BKP_GetFlagStatus), (12 bytes).
    Removing stm32f10x_bkp.o(i.BKP_GetITStatus), (12 bytes).
    Removing stm32f10x_bkp.o(i.BKP_ITConfig), (12 bytes).
    Removing stm32f10x_bkp.o(i.BKP_RTCOutputConfig), (28 bytes).
    Removing stm32f10x_bkp.o(i.BKP_ReadBackupRegister), (28 bytes).
    Removing stm32f10x_bkp.o(i.BKP_SetRTCCalibrationValue), (28 bytes).
    Removing stm32f10x_bkp.o(i.BKP_TamperPinCmd), (12 bytes).
    Removing stm32f10x_bkp.o(i.BKP_TamperPinLevelConfig), (12 bytes).
    Removing stm32f10x_bkp.o(i.BKP_WriteBackupRegister), (28 bytes).
    Removing stm32f10x_can.o(i.CAN_CancelTransmit), (48 bytes).
    Removing stm32f10x_can.o(i.CAN_ClearFlag), (56 bytes).
    Removing stm32f10x_can.o(i.CAN_ClearITPendingBit), (168 bytes).
    Removing stm32f10x_can.o(i.CAN_DBGFreeze), (22 bytes).
    Removing stm32f10x_can.o(i.CAN_DeInit), (56 bytes).
    Removing stm32f10x_can.o(i.CAN_FIFORelease), (22 bytes).
    Removing stm32f10x_can.o(i.CAN_FilterInit), (264 bytes).
    Removing stm32f10x_can.o(i.CAN_GetFlagStatus), (120 bytes).
    Removing stm32f10x_can.o(i.CAN_GetITStatus), (288 bytes).
    Removing stm32f10x_can.o(i.CAN_GetLSBTransmitErrorCounter), (12 bytes).
    Removing stm32f10x_can.o(i.CAN_GetLastErrorCode), (12 bytes).
    Removing stm32f10x_can.o(i.CAN_GetReceiveErrorCounter), (10 bytes).
    Removing stm32f10x_can.o(i.CAN_ITConfig), (18 bytes).
    Removing stm32f10x_can.o(i.CAN_Init), (276 bytes).
    Removing stm32f10x_can.o(i.CAN_MessagePending), (30 bytes).
    Removing stm32f10x_can.o(i.CAN_OperatingModeRequest), (162 bytes).
    Removing stm32f10x_can.o(i.CAN_Receive), (240 bytes).
    Removing stm32f10x_can.o(i.CAN_SlaveStartBank), (52 bytes).
    Removing stm32f10x_can.o(i.CAN_Sleep), (30 bytes).
    Removing stm32f10x_can.o(i.CAN_StructInit), (32 bytes).
    Removing stm32f10x_can.o(i.CAN_TTComModeCmd), (118 bytes).
    Removing stm32f10x_can.o(i.CAN_Transmit), (294 bytes).
    Removing stm32f10x_can.o(i.CAN_TransmitStatus), (160 bytes).
    Removing stm32f10x_can.o(i.CAN_WakeUp), (48 bytes).
    Removing stm32f10x_can.o(i.CheckITStatus), (18 bytes).
    Removing stm32f10x_cec.o(i.CEC_ClearFlag), (36 bytes).
    Removing stm32f10x_cec.o(i.CEC_ClearITPendingBit), (36 bytes).
    Removing stm32f10x_cec.o(i.CEC_Cmd), (32 bytes).
    Removing stm32f10x_cec.o(i.CEC_DeInit), (22 bytes).
    Removing stm32f10x_cec.o(i.CEC_EndOfMessageCmd), (12 bytes).
    Removing stm32f10x_cec.o(i.CEC_GetFlagStatus), (48 bytes).
    Removing stm32f10x_cec.o(i.CEC_GetITStatus), (40 bytes).
    Removing stm32f10x_cec.o(i.CEC_ITConfig), (12 bytes).
    Removing stm32f10x_cec.o(i.CEC_Init), (32 bytes).
    Removing stm32f10x_cec.o(i.CEC_OwnAddressConfig), (12 bytes).
    Removing stm32f10x_cec.o(i.CEC_ReceiveDataByte), (12 bytes).
    Removing stm32f10x_cec.o(i.CEC_SendDataByte), (12 bytes).
    Removing stm32f10x_cec.o(i.CEC_SetPrescaler), (12 bytes).
    Removing stm32f10x_cec.o(i.CEC_StartOfMessage), (12 bytes).
    Removing stm32f10x_crc.o(i.CRC_CalcBlockCRC), (36 bytes).
    Removing stm32f10x_crc.o(i.CRC_CalcCRC), (16 bytes).
    Removing stm32f10x_crc.o(i.CRC_GetCRC), (12 bytes).
    Removing stm32f10x_crc.o(i.CRC_GetIDRegister), (12 bytes).
    Removing stm32f10x_crc.o(i.CRC_ResetDR), (12 bytes).
    Removing stm32f10x_crc.o(i.CRC_SetIDRegister), (12 bytes).
    Removing stm32f10x_dac.o(i.DAC_Cmd), (40 bytes).
    Removing stm32f10x_dac.o(i.DAC_DMACmd), (44 bytes).
    Removing stm32f10x_dac.o(i.DAC_DeInit), (22 bytes).
    Removing stm32f10x_dac.o(i.DAC_DualSoftwareTriggerCmd), (36 bytes).
    Removing stm32f10x_dac.o(i.DAC_GetDataOutputValue), (36 bytes).
    Removing stm32f10x_dac.o(i.DAC_Init), (52 bytes).
    Removing stm32f10x_dac.o(i.DAC_SetChannel1Data), (32 bytes).
    Removing stm32f10x_dac.o(i.DAC_SetChannel2Data), (32 bytes).
    Removing stm32f10x_dac.o(i.DAC_SetDualChannelData), (36 bytes).
    Removing stm32f10x_dac.o(i.DAC_SoftwareTriggerCmd), (44 bytes).
    Removing stm32f10x_dac.o(i.DAC_StructInit), (12 bytes).
    Removing stm32f10x_dac.o(i.DAC_WaveGenerationCmd), (40 bytes).
    Removing stm32f10x_dbgmcu.o(i.DBGMCU_GetDEVID), (16 bytes).
    Removing stm32f10x_dbgmcu.o(i.DBGMCU_GetREVID), (12 bytes).
    Removing stm32f10x_dma.o(i.DMA_ClearFlag), (28 bytes).
    Removing stm32f10x_dma.o(i.DMA_ClearITPendingBit), (28 bytes).
    Removing stm32f10x_dma.o(i.DMA_Cmd), (24 bytes).
    Removing stm32f10x_dma.o(i.DMA_DeInit), (332 bytes).
    Removing stm32f10x_dma.o(i.DMA_GetCurrDataCounter), (8 bytes).
    Removing stm32f10x_dma.o(i.DMA_GetFlagStatus), (44 bytes).
    Removing stm32f10x_dma.o(i.DMA_GetITStatus), (44 bytes).
    Removing stm32f10x_dma.o(i.DMA_ITConfig), (18 bytes).
    Removing stm32f10x_dma.o(i.DMA_Init), (60 bytes).
    Removing stm32f10x_dma.o(i.DMA_SetCurrDataCounter), (4 bytes).
    Removing stm32f10x_dma.o(i.DMA_StructInit), (26 bytes).
    Removing stm32f10x_exti.o(i.EXTI_ClearFlag), (12 bytes).
    Removing stm32f10x_exti.o(i.EXTI_DeInit), (36 bytes).
    Removing stm32f10x_exti.o(i.EXTI_GenerateSWInterrupt), (16 bytes).
    Removing stm32f10x_exti.o(i.EXTI_GetFlagStatus), (24 bytes).
    Removing stm32f10x_exti.o(i.EXTI_StructInit), (16 bytes).
    Removing stm32f10x_flash.o(i.FLASH_ClearFlag), (12 bytes).
    Removing stm32f10x_flash.o(i.FLASH_EnableWriteProtection), (196 bytes).
    Removing stm32f10x_flash.o(i.FLASH_EraseAllBank1Pages), (72 bytes).
    Removing stm32f10x_flash.o(i.FLASH_EraseAllPages), (72 bytes).
    Removing stm32f10x_flash.o(i.FLASH_EraseOptionBytes), (168 bytes).
    Removing stm32f10x_flash.o(i.FLASH_ErasePage), (76 bytes).
    Removing stm32f10x_flash.o(i.FLASH_GetBank1Status), (52 bytes).
    Removing stm32f10x_flash.o(i.FLASH_GetFlagStatus), (48 bytes).
    Removing stm32f10x_flash.o(i.FLASH_GetPrefetchBufferStatus), (24 bytes).
    Removing stm32f10x_flash.o(i.FLASH_GetReadOutProtectionStatus), (24 bytes).
    Removing stm32f10x_flash.o(i.FLASH_GetStatus), (52 bytes).
    Removing stm32f10x_flash.o(i.FLASH_GetUserOptionByte), (12 bytes).
    Removing stm32f10x_flash.o(i.FLASH_GetWriteProtectionOptionByte), (12 bytes).
    Removing stm32f10x_flash.o(i.FLASH_HalfCycleAccessCmd), (28 bytes).
    Removing stm32f10x_flash.o(i.FLASH_ITConfig), (32 bytes).
    Removing stm32f10x_flash.o(i.FLASH_Lock), (20 bytes).
    Removing stm32f10x_flash.o(i.FLASH_LockBank1), (20 bytes).
    Removing stm32f10x_flash.o(i.FLASH_PrefetchBufferCmd), (28 bytes).
    Removing stm32f10x_flash.o(i.FLASH_ProgramHalfWord), (64 bytes).
    Removing stm32f10x_flash.o(i.FLASH_ProgramOptionByteData), (84 bytes).
    Removing stm32f10x_flash.o(i.FLASH_ProgramWord), (108 bytes).
    Removing stm32f10x_flash.o(i.FLASH_ReadOutProtection), (172 bytes).
    Removing stm32f10x_flash.o(i.FLASH_SetLatency), (24 bytes).
    Removing stm32f10x_flash.o(i.FLASH_Unlock), (24 bytes).
    Removing stm32f10x_flash.o(i.FLASH_UnlockBank1), (24 bytes).
    Removing stm32f10x_flash.o(i.FLASH_UserOptionByteConfig), (104 bytes).
    Removing stm32f10x_flash.o(i.FLASH_WaitForLastBank1Operation), (38 bytes).
    Removing stm32f10x_flash.o(i.FLASH_WaitForLastOperation), (38 bytes).
    Removing stm32f10x_fsmc.o(i.FSMC_ClearFlag), (64 bytes).
    Removing stm32f10x_fsmc.o(i.FSMC_ClearITPendingBit), (72 bytes).
    Removing stm32f10x_fsmc.o(i.FSMC_GetECC), (28 bytes).
    Removing stm32f10x_fsmc.o(i.FSMC_GetFlagStatus), (56 bytes).
    Removing stm32f10x_fsmc.o(i.FSMC_GetITStatus), (68 bytes).
    Removing stm32f10x_fsmc.o(i.FSMC_ITConfig), (128 bytes).
    Removing stm32f10x_fsmc.o(i.FSMC_NANDCmd), (92 bytes).
    Removing stm32f10x_fsmc.o(i.FSMC_NANDDeInit), (68 bytes).
    Removing stm32f10x_fsmc.o(i.FSMC_NANDECCCmd), (92 bytes).
    Removing stm32f10x_fsmc.o(i.FSMC_NANDInit), (136 bytes).
    Removing stm32f10x_fsmc.o(i.FSMC_NANDStructInit), (54 bytes).
    Removing stm32f10x_fsmc.o(i.FSMC_NORSRAMCmd), (52 bytes).
    Removing stm32f10x_fsmc.o(i.FSMC_NORSRAMDeInit), (54 bytes).
    Removing stm32f10x_fsmc.o(i.FSMC_NORSRAMInit), (230 bytes).
    Removing stm32f10x_fsmc.o(i.FSMC_NORSRAMStructInit), (114 bytes).
    Removing stm32f10x_fsmc.o(i.FSMC_PCCARDCmd), (48 bytes).
    Removing stm32f10x_fsmc.o(i.FSMC_PCCARDDeInit), (40 bytes).
    Removing stm32f10x_fsmc.o(i.FSMC_PCCARDInit), (132 bytes).
    Removing stm32f10x_fsmc.o(i.FSMC_PCCARDStructInit), (60 bytes).
    Removing stm32f10x_gpio.o(i.GPIO_AFIODeInit), (20 bytes).
    Removing stm32f10x_gpio.o(i.GPIO_DeInit), (200 bytes).
    Removing stm32f10x_gpio.o(i.GPIO_ETH_MediaInterfaceConfig), (12 bytes).
    Removing stm32f10x_gpio.o(i.GPIO_EventOutputCmd), (12 bytes).
    Removing stm32f10x_gpio.o(i.GPIO_EventOutputConfig), (32 bytes).
    Removing stm32f10x_gpio.o(i.GPIO_PinLockConfig), (18 bytes).
    Removing stm32f10x_gpio.o(i.GPIO_ReadInputData), (8 bytes).
    Removing stm32f10x_gpio.o(i.GPIO_ReadInputDataBit), (18 bytes).
    Removing stm32f10x_gpio.o(i.GPIO_ReadOutputData), (8 bytes).
    Removing stm32f10x_gpio.o(i.GPIO_ReadOutputDataBit), (18 bytes).
    Removing stm32f10x_gpio.o(i.GPIO_ResetBits), (4 bytes).
    Removing stm32f10x_gpio.o(i.GPIO_StructInit), (16 bytes).
    Removing stm32f10x_gpio.o(i.GPIO_Write), (4 bytes).
    Removing stm32f10x_gpio.o(i.GPIO_WriteBit), (10 bytes).
    Removing stm32f10x_i2c.o(i.I2C_ARPCmd), (24 bytes).
    Removing stm32f10x_i2c.o(i.I2C_AcknowledgeConfig), (24 bytes).
    Removing stm32f10x_i2c.o(i.I2C_CalculatePEC), (24 bytes).
    Removing stm32f10x_i2c.o(i.I2C_CheckEvent), (42 bytes).
    Removing stm32f10x_i2c.o(i.I2C_ClearFlag), (12 bytes).
    Removing stm32f10x_i2c.o(i.I2C_ClearITPendingBit), (12 bytes).
    Removing stm32f10x_i2c.o(i.I2C_Cmd), (24 bytes).
    Removing stm32f10x_i2c.o(i.I2C_DMACmd), (24 bytes).
    Removing stm32f10x_i2c.o(i.I2C_DMALastTransferCmd), (24 bytes).
    Removing stm32f10x_i2c.o(i.I2C_DeInit), (56 bytes).
    Removing stm32f10x_i2c.o(i.I2C_DualAddressCmd), (24 bytes).
    Removing stm32f10x_i2c.o(i.I2C_FastModeDutyCycleConfig), (28 bytes).
    Removing stm32f10x_i2c.o(i.I2C_GeneralCallCmd), (24 bytes).
    Removing stm32f10x_i2c.o(i.I2C_GenerateSTART), (24 bytes).
    Removing stm32f10x_i2c.o(i.I2C_GenerateSTOP), (24 bytes).
    Removing stm32f10x_i2c.o(i.I2C_GetFlagStatus), (58 bytes).
    Removing stm32f10x_i2c.o(i.I2C_GetITStatus), (38 bytes).
    Removing stm32f10x_i2c.o(i.I2C_GetLastEvent), (26 bytes).
    Removing stm32f10x_i2c.o(i.I2C_GetPEC), (8 bytes).
    Removing stm32f10x_i2c.o(i.I2C_ITConfig), (18 bytes).
    Removing stm32f10x_i2c.o(i.I2C_Init), (236 bytes).
    Removing stm32f10x_i2c.o(i.I2C_NACKPositionConfig), (28 bytes).
    Removing stm32f10x_i2c.o(i.I2C_OwnAddress2Config), (22 bytes).
    Removing stm32f10x_i2c.o(i.I2C_PECPositionConfig), (28 bytes).
    Removing stm32f10x_i2c.o(i.I2C_ReadRegister), (22 bytes).
    Removing stm32f10x_i2c.o(i.I2C_ReceiveData), (8 bytes).
    Removing stm32f10x_i2c.o(i.I2C_SMBusAlertConfig), (28 bytes).
    Removing stm32f10x_i2c.o(i.I2C_Send7bitAddress), (18 bytes).
    Removing stm32f10x_i2c.o(i.I2C_SendData), (4 bytes).
    Removing stm32f10x_i2c.o(i.I2C_SoftwareResetCmd), (22 bytes).
    Removing stm32f10x_i2c.o(i.I2C_StretchClockCmd), (24 bytes).
    Removing stm32f10x_i2c.o(i.I2C_StructInit), (30 bytes).
    Removing stm32f10x_i2c.o(i.I2C_TransmitPEC), (24 bytes).
    Removing stm32f10x_iwdg.o(i.IWDG_GetFlagStatus), (24 bytes).
    Removing stm32f10x_pwr.o(i.PWR_BackupAccessCmd), (12 bytes).
    Removing stm32f10x_pwr.o(i.PWR_ClearFlag), (20 bytes).
    Removing stm32f10x_pwr.o(i.PWR_DeInit), (22 bytes).
    Removing stm32f10x_pwr.o(i.PWR_EnterSTANDBYMode), (52 bytes).
    Removing stm32f10x_pwr.o(i.PWR_EnterSTOPMode), (64 bytes).
    Removing stm32f10x_pwr.o(i.PWR_GetFlagStatus), (24 bytes).
    Removing stm32f10x_pwr.o(i.PWR_PVDCmd), (12 bytes).
    Removing stm32f10x_pwr.o(i.PWR_PVDLevelConfig), (24 bytes).
    Removing stm32f10x_pwr.o(i.PWR_WakeUpPinCmd), (12 bytes).
    Removing stm32f10x_rcc.o(i.RCC_AHBPeriphClockCmd), (32 bytes).
    Removing stm32f10x_rcc.o(i.RCC_AdjustHSICalibrationValue), (24 bytes).
    Removing stm32f10x_rcc.o(i.RCC_BackupResetCmd), (12 bytes).
    Removing stm32f10x_rcc.o(i.RCC_ClearITPendingBit), (12 bytes).
    Removing stm32f10x_rcc.o(i.RCC_ClockSecuritySystemCmd), (12 bytes).
    Removing stm32f10x_rcc.o(i.RCC_DeInit), (76 bytes).
    Removing stm32f10x_rcc.o(i.RCC_GetITStatus), (24 bytes).
    Removing stm32f10x_rcc.o(i.RCC_GetSYSCLKSource), (16 bytes).
    Removing stm32f10x_rcc.o(i.RCC_HCLKConfig), (24 bytes).
    Removing stm32f10x_rcc.o(i.RCC_HSEConfig), (76 bytes).
    Removing stm32f10x_rcc.o(i.RCC_HSICmd), (12 bytes).
    Removing stm32f10x_rcc.o(i.RCC_ITConfig), (32 bytes).
    Removing stm32f10x_rcc.o(i.RCC_LSEConfig), (52 bytes).
    Removing stm32f10x_rcc.o(i.RCC_MCOConfig), (12 bytes).
    Removing stm32f10x_rcc.o(i.RCC_PCLK1Config), (24 bytes).
    Removing stm32f10x_rcc.o(i.RCC_PCLK2Config), (24 bytes).
    Removing stm32f10x_rcc.o(i.RCC_PLLCmd), (12 bytes).
    Removing stm32f10x_rcc.o(i.RCC_PLLConfig), (28 bytes).
    Removing stm32f10x_rcc.o(i.RCC_RTCCLKCmd), (12 bytes).
    Removing stm32f10x_rcc.o(i.RCC_RTCCLKConfig), (16 bytes).
    Removing stm32f10x_rcc.o(i.RCC_SYSCLKConfig), (24 bytes).
    Removing stm32f10x_rcc.o(i.RCC_USBCLKConfig), (12 bytes).
    Removing stm32f10x_rcc.o(i.RCC_WaitForHSEStartUp), (56 bytes).
    Removing stm32f10x_rtc.o(i.RTC_ClearFlag), (16 bytes).
    Removing stm32f10x_rtc.o(i.RTC_ClearITPendingBit), (16 bytes).
    Removing stm32f10x_rtc.o(i.RTC_EnterConfigMode), (20 bytes).
    Removing stm32f10x_rtc.o(i.RTC_ExitConfigMode), (20 bytes).
    Removing stm32f10x_rtc.o(i.RTC_GetCounter), (20 bytes).
    Removing stm32f10x_rtc.o(i.RTC_GetDivider), (24 bytes).
    Removing stm32f10x_rtc.o(i.RTC_GetFlagStatus), (24 bytes).
    Removing stm32f10x_rtc.o(i.RTC_GetITStatus), (36 bytes).
    Removing stm32f10x_rtc.o(i.RTC_ITConfig), (32 bytes).
    Removing stm32f10x_rtc.o(i.RTC_SetAlarm), (28 bytes).
    Removing stm32f10x_rtc.o(i.RTC_SetCounter), (28 bytes).
    Removing stm32f10x_rtc.o(i.RTC_SetPrescaler), (32 bytes).
    Removing stm32f10x_rtc.o(i.RTC_WaitForLastTask), (20 bytes).
    Removing stm32f10x_rtc.o(i.RTC_WaitForSynchro), (36 bytes).
    Removing stm32f10x_sdio.o(i.SDIO_CEATAITCmd), (16 bytes).
    Removing stm32f10x_sdio.o(i.SDIO_ClearFlag), (12 bytes).
    Removing stm32f10x_sdio.o(i.SDIO_ClearITPendingBit), (12 bytes).
    Removing stm32f10x_sdio.o(i.SDIO_ClockCmd), (12 bytes).
    Removing stm32f10x_sdio.o(i.SDIO_CmdStructInit), (14 bytes).
    Removing stm32f10x_sdio.o(i.SDIO_CommandCompletionCmd), (12 bytes).
    Removing stm32f10x_sdio.o(i.SDIO_DMACmd), (12 bytes).
    Removing stm32f10x_sdio.o(i.SDIO_DataConfig), (48 bytes).
    Removing stm32f10x_sdio.o(i.SDIO_DataStructInit), (20 bytes).
    Removing stm32f10x_sdio.o(i.SDIO_DeInit), (36 bytes).
    Removing stm32f10x_sdio.o(i.SDIO_GetCommandResponse), (12 bytes).
    Removing stm32f10x_sdio.o(i.SDIO_GetDataCounter), (12 bytes).
    Removing stm32f10x_sdio.o(i.SDIO_GetFIFOCount), (12 bytes).
    Removing stm32f10x_sdio.o(i.SDIO_GetFlagStatus), (24 bytes).
    Removing stm32f10x_sdio.o(i.SDIO_GetITStatus), (24 bytes).
    Removing stm32f10x_sdio.o(i.SDIO_GetPowerState), (16 bytes).
    Removing stm32f10x_sdio.o(i.SDIO_GetResponse), (24 bytes).
    Removing stm32f10x_sdio.o(i.SDIO_ITConfig), (32 bytes).
    Removing stm32f10x_sdio.o(i.SDIO_Init), (48 bytes).
    Removing stm32f10x_sdio.o(i.SDIO_ReadData), (12 bytes).
    Removing stm32f10x_sdio.o(i.SDIO_SendCEATACmd), (12 bytes).
    Removing stm32f10x_sdio.o(i.SDIO_SendCommand), (44 bytes).
    Removing stm32f10x_sdio.o(i.SDIO_SendSDIOSuspendCmd), (12 bytes).
    Removing stm32f10x_sdio.o(i.SDIO_SetPowerState), (28 bytes).
    Removing stm32f10x_sdio.o(i.SDIO_SetSDIOOperation), (12 bytes).
    Removing stm32f10x_sdio.o(i.SDIO_SetSDIOReadWaitMode), (12 bytes).
    Removing stm32f10x_sdio.o(i.SDIO_StartSDIOReadWait), (12 bytes).
    Removing stm32f10x_sdio.o(i.SDIO_StopSDIOReadWait), (12 bytes).
    Removing stm32f10x_sdio.o(i.SDIO_StructInit), (16 bytes).
    Removing stm32f10x_sdio.o(i.SDIO_WriteData), (12 bytes).
    Removing stm32f10x_spi.o(i.I2S_Cmd), (24 bytes).
    Removing stm32f10x_spi.o(i.I2S_Init), (232 bytes).
    Removing stm32f10x_spi.o(i.I2S_StructInit), (20 bytes).
    Removing stm32f10x_spi.o(i.SPI_BiDirectionalLineConfig), (28 bytes).
    Removing stm32f10x_spi.o(i.SPI_CalculateCRC), (24 bytes).
    Removing stm32f10x_spi.o(i.SPI_Cmd), (24 bytes).
    Removing stm32f10x_spi.o(i.SPI_DataSizeConfig), (18 bytes).
    Removing stm32f10x_spi.o(i.SPI_GetCRC), (16 bytes).
    Removing stm32f10x_spi.o(i.SPI_GetCRCPolynomial), (6 bytes).
    Removing stm32f10x_spi.o(i.SPI_I2S_ClearFlag), (6 bytes).
    Removing stm32f10x_spi.o(i.SPI_I2S_ClearITPendingBit), (20 bytes).
    Removing stm32f10x_spi.o(i.SPI_I2S_DMACmd), (18 bytes).
    Removing stm32f10x_spi.o(i.SPI_I2S_DeInit), (88 bytes).
    Removing stm32f10x_spi.o(i.SPI_I2S_GetFlagStatus), (18 bytes).
    Removing stm32f10x_spi.o(i.SPI_I2S_GetITStatus), (52 bytes).
    Removing stm32f10x_spi.o(i.SPI_I2S_ITConfig), (32 bytes).
    Removing stm32f10x_spi.o(i.SPI_I2S_ReceiveData), (6 bytes).
    Removing stm32f10x_spi.o(i.SPI_I2S_SendData), (4 bytes).
    Removing stm32f10x_spi.o(i.SPI_Init), (60 bytes).
    Removing stm32f10x_spi.o(i.SPI_NSSInternalSoftwareConfig), (30 bytes).
    Removing stm32f10x_spi.o(i.SPI_SSOutputCmd), (24 bytes).
    Removing stm32f10x_spi.o(i.SPI_StructInit), (24 bytes).
    Removing stm32f10x_spi.o(i.SPI_TransmitCRC), (10 bytes).
    Removing stm32f10x_tim.o(i.TI1_Config), (128 bytes).
    Removing stm32f10x_tim.o(i.TI2_Config), (152 bytes).
    Removing stm32f10x_tim.o(i.TI3_Config), (144 bytes).
    Removing stm32f10x_tim.o(i.TI4_Config), (152 bytes).
    Removing stm32f10x_tim.o(i.TIM_ARRPreloadConfig), (24 bytes).
    Removing stm32f10x_tim.o(i.TIM_BDTRConfig), (32 bytes).
    Removing stm32f10x_tim.o(i.TIM_BDTRStructInit), (18 bytes).
    Removing stm32f10x_tim.o(i.TIM_CCPreloadControl), (24 bytes).
    Removing stm32f10x_tim.o(i.TIM_CCxCmd), (30 bytes).
    Removing stm32f10x_tim.o(i.TIM_CCxNCmd), (30 bytes).
    Removing stm32f10x_tim.o(i.TIM_ClearFlag), (6 bytes).
    Removing stm32f10x_tim.o(i.TIM_ClearOC1Ref), (18 bytes).
    Removing stm32f10x_tim.o(i.TIM_ClearOC2Ref), (24 bytes).
    Removing stm32f10x_tim.o(i.TIM_ClearOC3Ref), (18 bytes).
    Removing stm32f10x_tim.o(i.TIM_ClearOC4Ref), (24 bytes).
    Removing stm32f10x_tim.o(i.TIM_CounterModeConfig), (18 bytes).
    Removing stm32f10x_tim.o(i.TIM_CtrlPWMOutputs), (30 bytes).
    Removing stm32f10x_tim.o(i.TIM_DMACmd), (18 bytes).
    Removing stm32f10x_tim.o(i.TIM_DMAConfig), (10 bytes).
    Removing stm32f10x_tim.o(i.TIM_DeInit), (488 bytes).
    Removing stm32f10x_tim.o(i.TIM_ETRClockMode1Config), (54 bytes).
    Removing stm32f10x_tim.o(i.TIM_ETRClockMode2Config), (32 bytes).
    Removing stm32f10x_tim.o(i.TIM_ETRConfig), (28 bytes).
    Removing stm32f10x_tim.o(i.TIM_EncoderInterfaceConfig), (66 bytes).
    Removing stm32f10x_tim.o(i.TIM_ForcedOC1Config), (18 bytes).
    Removing stm32f10x_tim.o(i.TIM_ForcedOC2Config), (26 bytes).
    Removing stm32f10x_tim.o(i.TIM_ForcedOC3Config), (18 bytes).
    Removing stm32f10x_tim.o(i.TIM_ForcedOC4Config), (26 bytes).
    Removing stm32f10x_tim.o(i.TIM_GenerateEvent), (4 bytes).
    Removing stm32f10x_tim.o(i.TIM_GetCapture1), (6 bytes).
    Removing stm32f10x_tim.o(i.TIM_GetCapture2), (6 bytes).
    Removing stm32f10x_tim.o(i.TIM_GetCapture3), (6 bytes).
    Removing stm32f10x_tim.o(i.TIM_GetCapture4), (8 bytes).
    Removing stm32f10x_tim.o(i.TIM_GetCounter), (6 bytes).
    Removing stm32f10x_tim.o(i.TIM_GetFlagStatus), (18 bytes).
    Removing stm32f10x_tim.o(i.TIM_GetPrescaler), (6 bytes).
    Removing stm32f10x_tim.o(i.TIM_ICInit), (172 bytes).
    Removing stm32f10x_tim.o(i.TIM_ICStructInit), (18 bytes).
    Removing stm32f10x_tim.o(i.TIM_ITRxExternalClockConfig), (24 bytes).
    Removing stm32f10x_tim.o(i.TIM_InternalClockConfig), (12 bytes).
    Removing stm32f10x_tim.o(i.TIM_OC1FastConfig), (18 bytes).
    Removing stm32f10x_tim.o(i.TIM_OC1Init), (152 bytes).
    Removing stm32f10x_tim.o(i.TIM_OC1NPolarityConfig), (18 bytes).
    Removing stm32f10x_tim.o(i.TIM_OC1PolarityConfig), (18 bytes).
    Removing stm32f10x_tim.o(i.TIM_OC1PreloadConfig), (18 bytes).
    Removing stm32f10x_tim.o(i.TIM_OC2FastConfig), (26 bytes).
    Removing stm32f10x_tim.o(i.TIM_OC2Init), (164 bytes).
    Removing stm32f10x_tim.o(i.TIM_OC2NPolarityConfig), (26 bytes).
    Removing stm32f10x_tim.o(i.TIM_OC2PolarityConfig), (26 bytes).
    Removing stm32f10x_tim.o(i.TIM_OC2PreloadConfig), (26 bytes).
    Removing stm32f10x_tim.o(i.TIM_OC3FastConfig), (18 bytes).
    Removing stm32f10x_tim.o(i.TIM_OC3Init), (160 bytes).
    Removing stm32f10x_tim.o(i.TIM_OC3NPolarityConfig), (26 bytes).
    Removing stm32f10x_tim.o(i.TIM_OC3PolarityConfig), (26 bytes).
    Removing stm32f10x_tim.o(i.TIM_OC3PreloadConfig), (18 bytes).
    Removing stm32f10x_tim.o(i.TIM_OC4FastConfig), (26 bytes).
    Removing stm32f10x_tim.o(i.TIM_OC4Init), (124 bytes).
    Removing stm32f10x_tim.o(i.TIM_OC4PolarityConfig), (26 bytes).
    Removing stm32f10x_tim.o(i.TIM_OC4PreloadConfig), (26 bytes).
    Removing stm32f10x_tim.o(i.TIM_OCStructInit), (20 bytes).
    Removing stm32f10x_tim.o(i.TIM_PWMIConfig), (124 bytes).
    Removing stm32f10x_tim.o(i.TIM_PrescalerConfig), (6 bytes).
    Removing stm32f10x_tim.o(i.TIM_SelectCCDMA), (24 bytes).
    Removing stm32f10x_tim.o(i.TIM_SelectCOM), (24 bytes).
    Removing stm32f10x_tim.o(i.TIM_SelectHallSensor), (24 bytes).
    Removing stm32f10x_tim.o(i.TIM_SelectInputTrigger), (18 bytes).
    Removing stm32f10x_tim.o(i.TIM_SelectMasterSlaveMode), (18 bytes).
    Removing stm32f10x_tim.o(i.TIM_SelectOCxM), (82 bytes).
    Removing stm32f10x_tim.o(i.TIM_SelectOnePulseMode), (18 bytes).
    Removing stm32f10x_tim.o(i.TIM_SelectOutputTrigger), (18 bytes).
    Removing stm32f10x_tim.o(i.TIM_SelectSlaveMode), (18 bytes).
    Removing stm32f10x_tim.o(i.TIM_SetAutoreload), (4 bytes).
    Removing stm32f10x_tim.o(i.TIM_SetClockDivision), (18 bytes).
    Removing stm32f10x_tim.o(i.TIM_SetCompare1), (4 bytes).
    Removing stm32f10x_tim.o(i.TIM_SetCompare2), (4 bytes).
    Removing stm32f10x_tim.o(i.TIM_SetCompare3), (4 bytes).
    Removing stm32f10x_tim.o(i.TIM_SetCompare4), (6 bytes).
    Removing stm32f10x_tim.o(i.TIM_SetCounter), (4 bytes).
    Removing stm32f10x_tim.o(i.TIM_SetIC1Prescaler), (18 bytes).
    Removing stm32f10x_tim.o(i.TIM_SetIC2Prescaler), (26 bytes).
    Removing stm32f10x_tim.o(i.TIM_SetIC3Prescaler), (18 bytes).
    Removing stm32f10x_tim.o(i.TIM_SetIC4Prescaler), (26 bytes).
    Removing stm32f10x_tim.o(i.TIM_TIxExternalClockConfig), (62 bytes).
    Removing stm32f10x_tim.o(i.TIM_TimeBaseStructInit), (18 bytes).
    Removing stm32f10x_tim.o(i.TIM_UpdateDisableConfig), (24 bytes).
    Removing stm32f10x_tim.o(i.TIM_UpdateRequestConfig), (24 bytes).
    Removing stm32f10x_usart.o(i.USART_ClearITPendingBit), (30 bytes).
    Removing stm32f10x_usart.o(i.USART_ClockInit), (34 bytes).
    Removing stm32f10x_usart.o(i.USART_ClockStructInit), (12 bytes).
    Removing stm32f10x_usart.o(i.USART_DMACmd), (18 bytes).
    Removing stm32f10x_usart.o(i.USART_HalfDuplexCmd), (24 bytes).
    Removing stm32f10x_usart.o(i.USART_IrDACmd), (24 bytes).
    Removing stm32f10x_usart.o(i.USART_IrDAConfig), (18 bytes).
    Removing stm32f10x_usart.o(i.USART_LINBreakDetectLengthConfig), (18 bytes).
    Removing stm32f10x_usart.o(i.USART_LINCmd), (24 bytes).
    Removing stm32f10x_usart.o(i.USART_OneBitMethodCmd), (24 bytes).
    Removing stm32f10x_usart.o(i.USART_OverSampling8Cmd), (22 bytes).
    Removing stm32f10x_usart.o(i.USART_ReceiverWakeUpCmd), (24 bytes).
    Removing stm32f10x_usart.o(i.USART_SendBreak), (10 bytes).
    Removing stm32f10x_usart.o(i.USART_SetAddress), (18 bytes).
    Removing stm32f10x_usart.o(i.USART_SetGuardTime), (16 bytes).
    Removing stm32f10x_usart.o(i.USART_SetPrescaler), (16 bytes).
    Removing stm32f10x_usart.o(i.USART_SmartCardCmd), (24 bytes).
    Removing stm32f10x_usart.o(i.USART_SmartCardNACKCmd), (24 bytes).
    Removing stm32f10x_usart.o(i.USART_StructInit), (24 bytes).
    Removing stm32f10x_usart.o(i.USART_WakeUpConfig), (18 bytes).
    Removing stm32f10x_wwdg.o(i.WWDG_ClearFlag), (12 bytes).
    Removing stm32f10x_wwdg.o(i.WWDG_DeInit), (22 bytes).
    Removing stm32f10x_wwdg.o(i.WWDG_Enable), (16 bytes).
    Removing stm32f10x_wwdg.o(i.WWDG_EnableIT), (12 bytes).
    Removing stm32f10x_wwdg.o(i.WWDG_GetFlagStatus), (12 bytes).
    Removing stm32f10x_wwdg.o(i.WWDG_SetCounter), (16 bytes).
    Removing stm32f10x_wwdg.o(i.WWDG_SetPrescaler), (24 bytes).
    Removing stm32f10x_wwdg.o(i.WWDG_SetWindowValue), (40 bytes).
    Removing main.o(i._CMIOT_IWDG_ReloadCounter), (28 bytes).
    Removing stm32f10x_it.o(.emb_text), (2 bytes).
    Removing core_cm3.o(.emb_text), (32 bytes).
    Removing system_stm32f10x.o(i.SystemCoreClockUpdate), (164 bytes).
    Removing event_groups.o(i.prvTestWaitCondition), (30 bytes).
    Removing event_groups.o(i.vEventGroupClearBitsCallback), (16 bytes).
    Removing event_groups.o(i.vEventGroupDelete), (42 bytes).
    Removing event_groups.o(i.vEventGroupSetBitsCallback), (16 bytes).
    Removing event_groups.o(i.xEventGroupClearBits), (32 bytes).
    Removing event_groups.o(i.xEventGroupCreate), (26 bytes).
    Removing event_groups.o(i.xEventGroupGetBitsFromISR), (44 bytes).
    Removing event_groups.o(i.xEventGroupSetBits), (146 bytes).
    Removing event_groups.o(i.xEventGroupSync), (168 bytes).
    Removing event_groups.o(i.xEventGroupWaitBits), (204 bytes).
    Removing queue.o(i.pcQueueGetName), (44 bytes).
    Removing queue.o(i.prvGetDisinheritPriorityAfterTimeout), (20 bytes).
    Removing queue.o(i.prvInitialiseMutex), (28 bytes).
    Removing queue.o(i.uxQueueMessagesWaiting), (18 bytes).
    Removing queue.o(i.uxQueueMessagesWaitingFromISR), (6 bytes).
    Removing queue.o(i.uxQueueSpacesAvailable), (24 bytes).
    Removing queue.o(i.vQueueDelete), (20 bytes).
    Removing queue.o(i.vQueueUnregisterQueue), (48 bytes).
    Removing queue.o(i.xQueueAddToSet), (38 bytes).
    Removing queue.o(i.xQueueCreateCountingSemaphore), (26 bytes).
    Removing queue.o(i.xQueueCreateMutex), (34 bytes).
    Removing queue.o(i.xQueueCreateSet), (20 bytes).
    Removing queue.o(i.xQueueGiveFromISR), (142 bytes).
    Removing queue.o(i.xQueueGiveMutexRecursive), (48 bytes).
    Removing queue.o(i.xQueueIsQueueEmptyFromISR), (14 bytes).
    Removing queue.o(i.xQueueIsQueueFullFromISR), (18 bytes).
    Removing queue.o(i.xQueuePeek), (268 bytes).
    Removing queue.o(i.xQueuePeekFromISR), (74 bytes).
    Removing queue.o(i.xQueueReceiveFromISR), (130 bytes).
    Removing queue.o(i.xQueueRemoveFromSet), (48 bytes).
    Removing queue.o(i.xQueueSelectFromSet), (24 bytes).
    Removing queue.o(i.xQueueSelectFromSetFromISR), (22 bytes).
    Removing queue.o(i.xQueueSemaphoreTake), (304 bytes).
    Removing queue.o(i.xQueueTakeMutexRecursive), (54 bytes).
    Removing stream_buffer.o(i.prvBytesInBuffer), (24 bytes).
    Removing stream_buffer.o(i.prvInitialiseNewStreamBuffer), (48 bytes).
    Removing stream_buffer.o(i.prvReadBytesFromBuffer), (94 bytes).
    Removing stream_buffer.o(i.prvReadMessageFromBuffer), (72 bytes).
    Removing stream_buffer.o(i.prvWriteBytesToBuffer), (78 bytes).
    Removing stream_buffer.o(i.prvWriteMessageToBuffer), (92 bytes).
    Removing stream_buffer.o(i.vStreamBufferDelete), (32 bytes).
    Removing stream_buffer.o(i.xStreamBufferBytesAvailable), (18 bytes).
    Removing stream_buffer.o(i.xStreamBufferGenericCreate), (46 bytes).
    Removing stream_buffer.o(i.xStreamBufferIsEmpty), (22 bytes).
    Removing stream_buffer.o(i.xStreamBufferIsFull), (40 bytes).
    Removing stream_buffer.o(i.xStreamBufferReceive), (168 bytes).
    Removing stream_buffer.o(i.xStreamBufferReceiveCompletedFromISR), (78 bytes).
    Removing stream_buffer.o(i.xStreamBufferReceiveFromISR), (132 bytes).
    Removing stream_buffer.o(i.xStreamBufferReset), (50 bytes).
    Removing stream_buffer.o(i.xStreamBufferSend), (190 bytes).
    Removing stream_buffer.o(i.xStreamBufferSendCompletedFromISR), (78 bytes).
    Removing stream_buffer.o(i.xStreamBufferSendFromISR), (132 bytes).
    Removing stream_buffer.o(i.xStreamBufferSetTriggerLevel), (26 bytes).
    Removing stream_buffer.o(i.xStreamBufferSpacesAvailable), (30 bytes).
    Removing tasks.o(i.eTaskGetState), (108 bytes).
    Removing tasks.o(i.pcTaskGetName), (24 bytes).
    Removing tasks.o(i.prvTaskIsTaskSuspended), (64 bytes).
    Removing tasks.o(i.pvTaskIncrementMutexHeldCount), (32 bytes).
    Removing tasks.o(i.uxTaskGetNumberOfTasks), (12 bytes).
    Removing tasks.o(i.uxTaskPriorityGet), (36 bytes).
    Removing tasks.o(i.uxTaskPriorityGetFromISR), (56 bytes).
    Removing tasks.o(i.uxTaskResetEventItemValue), (28 bytes).
    Removing tasks.o(i.vTaskDelayUntil), (116 bytes).
    Removing tasks.o(i.vTaskEndScheduler), (36 bytes).
    Removing tasks.o(i.vTaskPlaceOnUnorderedEventList), (44 bytes).
    Removing tasks.o(i.vTaskPriorityDisinheritAfterTimeout), (176 bytes).
    Removing tasks.o(i.vTaskPrioritySet), (244 bytes).
    Removing tasks.o(i.vTaskRemoveFromUnorderedEventList), (100 bytes).
    Removing tasks.o(i.vTaskResume), (120 bytes).
    Removing tasks.o(i.vTaskSetTimeOutState), (36 bytes).
    Removing tasks.o(i.vTaskSuspend), (204 bytes).
    Removing tasks.o(i.xTaskGenericNotify), (196 bytes).
    Removing tasks.o(i.xTaskGenericNotifyFromISR), (252 bytes).
    Removing tasks.o(i.xTaskGetCurrentTaskHandle), (12 bytes).
    Removing tasks.o(i.xTaskNotifyStateClear), (52 bytes).
    Removing tasks.o(i.xTaskNotifyWait), (160 bytes).
    Removing tasks.o(i.xTaskPriorityInherit), (200 bytes).
    Removing tasks.o(i.xTaskResumeFromISR), (152 bytes).
    Removing timers.o(i.pcTimerGetName), (8 bytes).
    Removing timers.o(i.pvTimerGetTimerID), (20 bytes).
    Removing timers.o(i.vTimerSetTimerID), (20 bytes).
    Removing timers.o(i.xTimerGetExpiryTime), (8 bytes).
    Removing timers.o(i.xTimerGetPeriod), (8 bytes).
    Removing timers.o(i.xTimerGetTimerDaemonTaskHandle), (12 bytes).
    Removing timers.o(i.xTimerIsTimerActive), (32 bytes).
    Removing timers.o(i.xTimerPendFunctionCall), (52 bytes).
    Removing timers.o(i.xTimerPendFunctionCallFromISR), (52 bytes).
    Removing heap_4.o(i.vPortInitialiseBlocks), (2 bytes).
    Removing heap_4.o(i.xPortGetMinimumEverFreeHeapSize), (12 bytes).
    Removing port.o(i.vPortEndScheduler), (2 bytes).
    Removing delay.o(i.delay_xms), (24 bytes).
    Removing sys.o(.emb_text), (6 bytes).
    Removing sys.o(i.INTX_DISABLE), (4 bytes).
    Removing sys.o(i.INTX_ENABLE), (4 bytes).
    Removing sys.o(i.WFI_SET), (4 bytes).
    Removing freertos_cli.o(i.FreeRTOS_CLIGetOutputBuffer), (8 bytes).
    Removing freertos_cli.o(.bss), (100 bytes).
    Removing st7789s.o(i.Draw_Circle), (176 bytes).
    Removing st7789s.o(i.ILI9341_PIC), (124 bytes).
    Removing st7789s.o(i.LCD_BGR2RGB), (26 bytes).
    Removing st7789s.o(i.LCD_DisplayOff), (10 bytes).
    Removing st7789s.o(i.LCD_DisplayOn), (10 bytes).
    Removing st7789s.o(i.LCD_ReadReg), (164 bytes).
    Removing st7789s.o(i.LCD_Show2Num), (92 bytes).
    Removing st7789s.o(i.LCD_ShowFontHZ_Arial), (240 bytes).
    Removing st7789s.o(i.LCD_ShowNum), (148 bytes).
    Removing st7789s.o(i.LCD_WriteRAM), (48 bytes).
    Removing st7789s.o(i.LCD_WriteReg), (60 bytes).
    Removing st7789s.o(i.mypow), (22 bytes).
    Removing ui.o(i._CMIOT_ComprehensiveTest), (1420 bytes).
    Removing dfixui.o(.text), (50 bytes).

538 unused section(s) (total 26222 bytes) removed from the image.

==============================================================================

Image Symbol Table

    Local Symbols

    Symbol Name                              Value     Ov Type        Size  Object(Section)

    ../clib/../cmprslib/zerorunl2.c          0x00000000   Number         0  __dczerorl2.o ABSOLUTE
    ../clib/microlib/division.c              0x00000000   Number         0  uldiv.o ABSOLUTE
    ../clib/microlib/division.c              0x00000000   Number         0  uidiv.o ABSOLUTE
    ../clib/microlib/init/entry.s            0x00000000   Number         0  entry8b.o ABSOLUTE
    ../clib/microlib/init/entry.s            0x00000000   Number         0  entry11a.o ABSOLUTE
    ../clib/microlib/init/entry.s            0x00000000   Number         0  entry7b.o ABSOLUTE
    ../clib/microlib/init/entry.s            0x00000000   Number         0  entry8a.o ABSOLUTE
    ../clib/microlib/init/entry.s            0x00000000   Number         0  entry5.o ABSOLUTE
    ../clib/microlib/init/entry.s            0x00000000   Number         0  entry2.o ABSOLUTE
    ../clib/microlib/init/entry.s            0x00000000   Number         0  entry10a.o ABSOLUTE
    ../clib/microlib/init/entry.s            0x00000000   Number         0  entry10b.o ABSOLUTE
    ../clib/microlib/init/entry.s            0x00000000   Number         0  entry9a.o ABSOLUTE
    ../clib/microlib/init/entry.s            0x00000000   Number         0  entry.o ABSOLUTE
    ../clib/microlib/init/entry.s            0x00000000   Number         0  entry9b.o ABSOLUTE
    ../clib/microlib/init/entry.s            0x00000000   Number         0  entry11b.o ABSOLUTE
    ../clib/microlib/init/entry.s            0x00000000   Number         0  entry7a.o ABSOLUTE
    ../clib/microlib/longlong.c              0x00000000   Number         0  llsshr.o ABSOLUTE
    ../clib/microlib/longlong.c              0x00000000   Number         0  llushr.o ABSOLUTE
    ../clib/microlib/longlong.c              0x00000000   Number         0  llshl.o ABSOLUTE
    ../clib/microlib/printf/printf.c         0x00000000   Number         0  printf6.o ABSOLUTE
    ../clib/microlib/printf/printf.c         0x00000000   Number         0  printf8.o ABSOLUTE
    ../clib/microlib/printf/printf.c         0x00000000   Number         0  printfa.o ABSOLUTE
    ../clib/microlib/printf/printf.c         0x00000000   Number         0  printf7.o ABSOLUTE
    ../clib/microlib/printf/printf.c         0x00000000   Number         0  printfb.o ABSOLUTE
    ../clib/microlib/printf/printf.c         0x00000000   Number         0  printf2.o ABSOLUTE
    ../clib/microlib/printf/printf.c         0x00000000   Number         0  printf0.o ABSOLUTE
    ../clib/microlib/printf/printf.c         0x00000000   Number         0  printf1.o ABSOLUTE
    ../clib/microlib/printf/printf.c         0x00000000   Number         0  printf3.o ABSOLUTE
    ../clib/microlib/printf/printf.c         0x00000000   Number         0  printf4.o ABSOLUTE
    ../clib/microlib/printf/printf.c         0x00000000   Number         0  printf5.o ABSOLUTE
    ../clib/microlib/printf/stubs.s          0x00000000   Number         0  stubs.o ABSOLUTE
    ../clib/microlib/stdio/fputc.c           0x00000000   Number         0  fputc.o ABSOLUTE
    ../clib/microlib/stdio/semi.s            0x00000000   Number         0  semi.o ABSOLUTE
    ../clib/microlib/stdio/streams.c         0x00000000   Number         0  stdout.o ABSOLUTE
    ../clib/microlib/string/memcpy.c         0x00000000   Number         0  memcpyb.o ABSOLUTE
    ../clib/microlib/string/memcpy.c         0x00000000   Number         0  memcpya.o ABSOLUTE
    ../clib/microlib/string/memset.c         0x00000000   Number         0  memseta.o ABSOLUTE
    ../clib/microlib/string/strcat.c         0x00000000   Number         0  strcat.o ABSOLUTE
    ../clib/microlib/string/strcmp.c         0x00000000   Number         0  strcmp.o ABSOLUTE
    ../clib/microlib/string/strlen.c         0x00000000   Number         0  strlen.o ABSOLUTE
    ../clib/microlib/string/strncat.c        0x00000000   Number         0  strncat.o ABSOLUTE
    ../clib/microlib/string/strncmp.c        0x00000000   Number         0  strncmp.o ABSOLUTE
    ../clib/microlib/string/strncpy.c        0x00000000   Number         0  strncpy.o ABSOLUTE
    ../clib/microlib/string/strstr.c         0x00000000   Number         0  strstr.o ABSOLUTE
    ../clib/microlib/string/strtok.c         0x00000000   Number         0  strtok.o ABSOLUTE
    ../clib/microlib/string/strtok.c         0x00000000   Number         0  strtok_r.o ABSOLUTE
    ../clib/microlib/stubs.s                 0x00000000   Number         0  iusefp.o ABSOLUTE
    ../clib/microlib/stubs.s                 0x00000000   Number         0  iusesemip.o ABSOLUTE
    ../fplib/microlib/d2f.c                  0x00000000   Number         0  d2f.o ABSOLUTE
    ../fplib/microlib/f2d.c                  0x00000000   Number         0  f2d.o ABSOLUTE
    ../fplib/microlib/fpadd.c                0x00000000   Number         0  dadd.o ABSOLUTE
    ../fplib/microlib/fpdiv.c                0x00000000   Number         0  ddiv.o ABSOLUTE
    ../fplib/microlib/fpdiv.c                0x00000000   Number         0  fdiv.o ABSOLUTE
    ../fplib/microlib/fpepilogue.c           0x00000000   Number         0  fepilogue.o ABSOLUTE
    ../fplib/microlib/fpepilogue.c           0x00000000   Number         0  depilogue.o ABSOLUTE
    ../fplib/microlib/fpfix.c                0x00000000   Number         0  dfixui.o ABSOLUTE
    ../fplib/microlib/fpfix.c                0x00000000   Number         0  dfixul.o ABSOLUTE
    ../fplib/microlib/fpflt.c                0x00000000   Number         0  ffltui.o ABSOLUTE
    ../fplib/microlib/fpflt.c                0x00000000   Number         0  fflti.o ABSOLUTE
    ../fplib/microlib/fpmul.c                0x00000000   Number         0  dmul.o ABSOLUTE
    ../fplib/microlib/fpmul.c                0x00000000   Number         0  fmul.o ABSOLUTE
    ../mathlib/floor.c                       0x00000000   Number         0  floor.o ABSOLUTE
    CMSIS\\core_cm3.c                        0x00000000   Number         0  core_cm3.o ABSOLUTE
    CMSIS\core_cm3.c                         0x00000000   Number         0  core_cm3.o ABSOLUTE
    CMSIS\startup\startup_stm32f10x_hd.s     0x00000000   Number         0  startup_stm32f10x_hd.o ABSOLUTE
    CMSIS\system_stm32f10x.c                 0x00000000   Number         0  system_stm32f10x.o ABSOLUTE
    FWlib\src\misc.c                         0x00000000   Number         0  misc.o ABSOLUTE
    FWlib\src\stm32f10x_adc.c                0x00000000   Number         0  stm32f10x_adc.o ABSOLUTE
    FWlib\src\stm32f10x_bkp.c                0x00000000   Number         0  stm32f10x_bkp.o ABSOLUTE
    FWlib\src\stm32f10x_can.c                0x00000000   Number         0  stm32f10x_can.o ABSOLUTE
    FWlib\src\stm32f10x_cec.c                0x00000000   Number         0  stm32f10x_cec.o ABSOLUTE
    FWlib\src\stm32f10x_crc.c                0x00000000   Number         0  stm32f10x_crc.o ABSOLUTE
    FWlib\src\stm32f10x_dac.c                0x00000000   Number         0  stm32f10x_dac.o ABSOLUTE
    FWlib\src\stm32f10x_dbgmcu.c             0x00000000   Number         0  stm32f10x_dbgmcu.o ABSOLUTE
    FWlib\src\stm32f10x_dma.c                0x00000000   Number         0  stm32f10x_dma.o ABSOLUTE
    FWlib\src\stm32f10x_exti.c               0x00000000   Number         0  stm32f10x_exti.o ABSOLUTE
    FWlib\src\stm32f10x_flash.c              0x00000000   Number         0  stm32f10x_flash.o ABSOLUTE
    FWlib\src\stm32f10x_fsmc.c               0x00000000   Number         0  stm32f10x_fsmc.o ABSOLUTE
    FWlib\src\stm32f10x_gpio.c               0x00000000   Number         0  stm32f10x_gpio.o ABSOLUTE
    FWlib\src\stm32f10x_i2c.c                0x00000000   Number         0  stm32f10x_i2c.o ABSOLUTE
    FWlib\src\stm32f10x_iwdg.c               0x00000000   Number         0  stm32f10x_iwdg.o ABSOLUTE
    FWlib\src\stm32f10x_pwr.c                0x00000000   Number         0  stm32f10x_pwr.o ABSOLUTE
    FWlib\src\stm32f10x_rcc.c                0x00000000   Number         0  stm32f10x_rcc.o ABSOLUTE
    FWlib\src\stm32f10x_rtc.c                0x00000000   Number         0  stm32f10x_rtc.o ABSOLUTE
    FWlib\src\stm32f10x_sdio.c               0x00000000   Number         0  stm32f10x_sdio.o ABSOLUTE
    FWlib\src\stm32f10x_spi.c                0x00000000   Number         0  stm32f10x_spi.o ABSOLUTE
    FWlib\src\stm32f10x_tim.c                0x00000000   Number         0  stm32f10x_tim.o ABSOLUTE
    FWlib\src\stm32f10x_usart.c              0x00000000   Number         0  stm32f10x_usart.o ABSOLUTE
    FWlib\src\stm32f10x_wwdg.c               0x00000000   Number         0  stm32f10x_wwdg.o ABSOLUTE
    FreeRTOS-Plus\FreeRTOS-Plus-CLI\FreeRTOS_CLI.c 0x00000000   Number         0  freertos_cli.o ABSOLUTE
    FreeRTOS-Plus\FreeRTOS-Plus-CLI\User_Cli.c 0x00000000   Number         0  user_cli.o ABSOLUTE
    FreeRTOS\\portable\\RVDS\\ARM_CM3\\port.c 0x00000000   Number         0  port.o ABSOLUTE
    FreeRTOS\croutine.c                      0x00000000   Number         0  croutine.o ABSOLUTE
    FreeRTOS\event_groups.c                  0x00000000   Number         0  event_groups.o ABSOLUTE
    FreeRTOS\list.c                          0x00000000   Number         0  list.o ABSOLUTE
    FreeRTOS\portable\MemMang\heap_4.c       0x00000000   Number         0  heap_4.o ABSOLUTE
    FreeRTOS\portable\RVDS\ARM_CM3\port.c    0x00000000   Number         0  port.o ABSOLUTE
    FreeRTOS\queue.c                         0x00000000   Number         0  queue.o ABSOLUTE
    FreeRTOS\stream_buffer.c                 0x00000000   Number         0  stream_buffer.o ABSOLUTE
    FreeRTOS\tasks.c                         0x00000000   Number         0  tasks.o ABSOLUTE
    FreeRTOS\timers.c                        0x00000000   Number         0  timers.o ABSOLUTE
    HAL\ADC\adc.c                            0x00000000   Number         0  adc.o ABSOLUTE
    HAL\BLUETOOTH\bluetooth.c                0x00000000   Number         0  bluetooth.o ABSOLUTE
    HAL\COMMON\common.c                      0x00000000   Number         0  common.o ABSOLUTE
    HAL\GUI\ui.c                             0x00000000   Number         0  ui.o ABSOLUTE
    HAL\KEY\key.c                            0x00000000   Number         0  key.o ABSOLUTE
    HAL\LCD\st7789s.c                        0x00000000   Number         0  st7789s.o ABSOLUTE
    HAL\TIMER\timer.c                        0x00000000   Number         0  timer.o ABSOLUTE
    HAL\USART\usart.c                        0x00000000   Number         0  usart.o ABSOLUTE
    M5310\m5310.c                            0x00000000   Number         0  m5310.o ABSOLUTE
    SYSTEM\\sys\\sys.c                       0x00000000   Number         0  sys.o ABSOLUTE
    SYSTEM\delay\delay.c                     0x00000000   Number         0  delay.o ABSOLUTE
    SYSTEM\sys\sys.c                         0x00000000   Number         0  sys.o ABSOLUTE
    User\\stm32f10x_it.c                     0x00000000   Number         0  stm32f10x_it.o ABSOLUTE
    User\main.c                              0x00000000   Number         0  main.o ABSOLUTE
    User\stm32f10x_it.c                      0x00000000   Number         0  stm32f10x_it.o ABSOLUTE
    cdrcmple.s                               0x00000000   Number         0  cdrcmple.o ABSOLUTE
    cfrcmple.s                               0x00000000   Number         0  cfrcmple.o ABSOLUTE
    dc.s                                     0x00000000   Number         0  dc.o ABSOLUTE
    handlers.s                               0x00000000   Number         0  handlers.o ABSOLUTE
    init.s                                   0x00000000   Number         0  init.o ABSOLUTE
    RESET                                    0x08000000   Section      304  startup_stm32f10x_hd.o(RESET)
    .ARM.Collect$$$$00000000                 0x08000130   Section        0  entry.o(.ARM.Collect$$$$00000000)
    .ARM.Collect$$$$00000001                 0x08000130   Section        4  entry2.o(.ARM.Collect$$$$00000001)
    .ARM.Collect$$$$00000004                 0x08000134   Section        4  entry5.o(.ARM.Collect$$$$00000004)
    .ARM.Collect$$$$00000008                 0x08000138   Section        0  entry7b.o(.ARM.Collect$$$$00000008)
    .ARM.Collect$$$$0000000A                 0x08000138   Section        0  entry8b.o(.ARM.Collect$$$$0000000A)
    .ARM.Collect$$$$0000000B                 0x08000138   Section        8  entry9a.o(.ARM.Collect$$$$0000000B)
    .ARM.Collect$$$$0000000D                 0x08000140   Section        0  entry10a.o(.ARM.Collect$$$$0000000D)
    .ARM.Collect$$$$0000000F                 0x08000140   Section        0  entry11a.o(.ARM.Collect$$$$0000000F)
    .ARM.Collect$$$$00002712                 0x08000140   Section        4  entry2.o(.ARM.Collect$$$$00002712)
    __lit__00000000                          0x08000140   Data           4  entry2.o(.ARM.Collect$$$$00002712)
    .emb_text                                0x08000144   Section      150  port.o(.emb_text)
    .text                                    0x080001dc   Section       36  startup_stm32f10x_hd.o(.text)
    .text                                    0x08000200   Section        0  memcpya.o(.text)
    .text                                    0x08000224   Section        0  memseta.o(.text)
    .text                                    0x08000248   Section        0  strcat.o(.text)
    .text                                    0x08000260   Section        0  strstr.o(.text)
    .text                                    0x08000284   Section        0  strncpy.o(.text)
    .text                                    0x0800029c   Section        0  strlen.o(.text)
    .text                                    0x080002aa   Section        0  strcmp.o(.text)
    .text                                    0x080002c6   Section        0  strncat.o(.text)
    .text                                    0x080002ee   Section        0  strncmp.o(.text)
    .text                                    0x0800030c   Section        0  strtok.o(.text)
    .text                                    0x08000350   Section        0  fmul.o(.text)
    .text                                    0x080003b4   Section        0  fdiv.o(.text)
    .text                                    0x08000430   Section        0  dadd.o(.text)
    .text                                    0x0800057e   Section        0  dmul.o(.text)
    .text                                    0x08000662   Section        0  fflti.o(.text)
    .text                                    0x08000674   Section        0  ffltui.o(.text)
    .text                                    0x0800067e   Section        0  f2d.o(.text)
    .text                                    0x080006a4   Section       48  cdrcmple.o(.text)
    .text                                    0x080006d4   Section        0  d2f.o(.text)
    .text                                    0x0800070c   Section       20  cfrcmple.o(.text)
    .text                                    0x08000720   Section        0  uidiv.o(.text)
    .text                                    0x0800074c   Section        0  uldiv.o(.text)
    .text                                    0x080007ae   Section        0  llshl.o(.text)
    .text                                    0x080007cc   Section        0  llushr.o(.text)
    .text                                    0x080007ec   Section        0  llsshr.o(.text)
    .text                                    0x08000810   Section        0  iusefp.o(.text)
    .text                                    0x08000810   Section        0  fepilogue.o(.text)
    .text                                    0x0800087e   Section        0  depilogue.o(.text)
    .text                                    0x08000938   Section        0  ddiv.o(.text)
    .text                                    0x08000a16   Section        0  dfixul.o(.text)
    .text                                    0x08000a48   Section       36  init.o(.text)
    .text                                    0x08000a6c   Section        0  __dczerorl2.o(.text)
    i.ADC_Cmd                                0x08000ac2   Section        0  stm32f10x_adc.o(i.ADC_Cmd)
    i.ADC_DeInit                             0x08000ad8   Section        0  stm32f10x_adc.o(i.ADC_DeInit)
    i.ADC_GetCalibrationStatus               0x08000b34   Section        0  stm32f10x_adc.o(i.ADC_GetCalibrationStatus)
    i.ADC_GetConversionValue                 0x08000b48   Section        0  stm32f10x_adc.o(i.ADC_GetConversionValue)
    i.ADC_GetFlagStatus                      0x08000b50   Section        0  stm32f10x_adc.o(i.ADC_GetFlagStatus)
    i.ADC_GetResetCalibrationStatus          0x08000b62   Section        0  stm32f10x_adc.o(i.ADC_GetResetCalibrationStatus)
    i.ADC_Init                               0x08000b78   Section        0  stm32f10x_adc.o(i.ADC_Init)
    i.ADC_RegularChannelConfig               0x08000bc8   Section        0  stm32f10x_adc.o(i.ADC_RegularChannelConfig)
    i.ADC_ResetCalibration                   0x08000c80   Section        0  stm32f10x_adc.o(i.ADC_ResetCalibration)
    i.ADC_SoftwareStartConvCmd               0x08000c8a   Section        0  stm32f10x_adc.o(i.ADC_SoftwareStartConvCmd)
    i.ADC_StartCalibration                   0x08000ca0   Section        0  stm32f10x_adc.o(i.ADC_StartCalibration)
    i.Adc_Init                               0x08000cac   Section        0  adc.o(i.Adc_Init)
    i.BusFault_Handler                       0x08000d38   Section        0  stm32f10x_it.o(i.BusFault_Handler)
    i.ConfigureTimeForRunTimeStats           0x08000d3c   Section        0  timer.o(i.ConfigureTimeForRunTimeStats)
    i.DBGMCU_Config                          0x08000d58   Section        0  stm32f10x_dbgmcu.o(i.DBGMCU_Config)
    i.DebugMon_Handler                       0x08000d78   Section        0  stm32f10x_it.o(i.DebugMon_Handler)
    i.EXTI15_10_IRQHandler                   0x08000d7c   Section        0  key.o(i.EXTI15_10_IRQHandler)
    i.EXTI2_IRQHandler                       0x08000ed8   Section        0  key.o(i.EXTI2_IRQHandler)
    i.EXTI3_IRQHandler                       0x08000fac   Section        0  key.o(i.EXTI3_IRQHandler)
    i.EXTI4_IRQHandler                       0x08001078   Section        0  key.o(i.EXTI4_IRQHandler)
    i.EXTI_ClearITPendingBit                 0x08001144   Section        0  stm32f10x_exti.o(i.EXTI_ClearITPendingBit)
    i.EXTI_GetITStatus                       0x08001150   Section        0  stm32f10x_exti.o(i.EXTI_GetITStatus)
    i.EXTI_Init                              0x08001178   Section        0  stm32f10x_exti.o(i.EXTI_Init)
    i.FreeRTOS_CLIGetParameter               0x0800120c   Section        0  freertos_cli.o(i.FreeRTOS_CLIGetParameter)
    i.FreeRTOS_CLIProcessCommand             0x08001268   Section        0  freertos_cli.o(i.FreeRTOS_CLIProcessCommand)
    i.FreeRTOS_CLIRegisterCommand            0x08001348   Section        0  freertos_cli.o(i.FreeRTOS_CLIRegisterCommand)
    i.GPIO_EXTILineConfig                    0x0800137c   Section        0  stm32f10x_gpio.o(i.GPIO_EXTILineConfig)
    i.GPIO_Init                              0x080013bc   Section        0  stm32f10x_gpio.o(i.GPIO_Init)
    i.GPIO_PinRemapConfig                    0x080014d4   Section        0  stm32f10x_gpio.o(i.GPIO_PinRemapConfig)
    i.GPIO_SetBits                           0x08001564   Section        0  stm32f10x_gpio.o(i.GPIO_SetBits)
    i.Get_Adc                                0x08001568   Section        0  adc.o(i.Get_Adc)
    i.Get_Adc_Average                        0x0800159c   Section        0  adc.o(i.Get_Adc_Average)
    i.HardFault_Handler                      0x080015ca   Section        0  stm32f10x_it.o(i.HardFault_Handler)
    i.IWDG_Enable                            0x080015d0   Section        0  stm32f10x_iwdg.o(i.IWDG_Enable)
    i.IWDG_ReloadCounter                     0x080015e0   Section        0  stm32f10x_iwdg.o(i.IWDG_ReloadCounter)
    i.IWDG_SetPrescaler                      0x080015f0   Section        0  stm32f10x_iwdg.o(i.IWDG_SetPrescaler)
    i.IWDG_SetReload                         0x080015fc   Section        0  stm32f10x_iwdg.o(i.IWDG_SetReload)
    i.IWDG_WriteAccessCmd                    0x08001608   Section        0  stm32f10x_iwdg.o(i.IWDG_WriteAccessCmd)
    i.LCD_Clear                              0x08001614   Section        0  st7789s.o(i.LCD_Clear)
    i.LCD_DrawLine                           0x0800167c   Section        0  st7789s.o(i.LCD_DrawLine)
    i.LCD_DrawPoint                          0x0800172c   Section        0  st7789s.o(i.LCD_DrawPoint)
    i.LCD_DrawRectangle                      0x08001794   Section        0  st7789s.o(i.LCD_DrawRectangle)
    i.LCD_Fill                               0x080017d4   Section        0  st7789s.o(i.LCD_Fill)
    i.LCD_GPIO_Init                          0x08001864   Section        0  st7789s.o(i.LCD_GPIO_Init)
    i.LCD_Init                               0x080018b4   Section        0  st7789s.o(i.LCD_Init)
    i.LCD_RESET                              0x08001ee4   Section        0  st7789s.o(i.LCD_RESET)
    i.LCD_SetCursor                          0x08001f10   Section        0  st7789s.o(i.LCD_SetCursor)
    i.LCD_ShowChar                           0x08001fb8   Section        0  st7789s.o(i.LCD_ShowChar)
    i.LCD_ShowChinese                        0x08002180   Section        0  st7789s.o(i.LCD_ShowChinese)
    i.LCD_ShowFontEN                         0x08002650   Section        0  st7789s.o(i.LCD_ShowFontEN)
    i.LCD_ShowFontHZ                         0x0800272c   Section        0  st7789s.o(i.LCD_ShowFontHZ)
    i.LCD_ShowPicture                        0x08002918   Section        0  st7789s.o(i.LCD_ShowPicture)
    i.LCD_ShowString                         0x0800297c   Section        0  st7789s.o(i.LCD_ShowString)
    i.LCD_WR_REG                             0x080029e4   Section        0  st7789s.o(i.LCD_WR_REG)
    i.LCD_WriteRAM_Prepare                   0x08002a10   Section        0  st7789s.o(i.LCD_WriteRAM_Prepare)
    i.MemManage_Handler                      0x08002a1a   Section        0  stm32f10x_it.o(i.MemManage_Handler)
    i.NMI_Handler                            0x08002a1e   Section        0  stm32f10x_it.o(i.NMI_Handler)
    i.NVIC_Init                              0x08002a20   Section        0  misc.o(i.NVIC_Init)
    i.NVIC_PriorityGroupConfig               0x08002a90   Section        0  misc.o(i.NVIC_PriorityGroupConfig)
    i.RCC_ADCCLKConfig                       0x08002aa4   Section        0  stm32f10x_rcc.o(i.RCC_ADCCLKConfig)
    i.RCC_APB1PeriphClockCmd                 0x08002abc   Section        0  stm32f10x_rcc.o(i.RCC_APB1PeriphClockCmd)
    i.RCC_APB1PeriphResetCmd                 0x08002adc   Section        0  stm32f10x_rcc.o(i.RCC_APB1PeriphResetCmd)
    i.RCC_APB2PeriphClockCmd                 0x08002afc   Section        0  stm32f10x_rcc.o(i.RCC_APB2PeriphClockCmd)
    i.RCC_APB2PeriphResetCmd                 0x08002b1c   Section        0  stm32f10x_rcc.o(i.RCC_APB2PeriphResetCmd)
    i.RCC_ClearFlag                          0x08002b3c   Section        0  stm32f10x_rcc.o(i.RCC_ClearFlag)
    i.RCC_GetClocksFreq                      0x08002b50   Section        0  stm32f10x_rcc.o(i.RCC_GetClocksFreq)
    i.RCC_GetFlagStatus                      0x08002c24   Section        0  stm32f10x_rcc.o(i.RCC_GetFlagStatus)
    i.RCC_LSICmd                             0x08002c60   Section        0  stm32f10x_rcc.o(i.RCC_LSICmd)
    i.SetSysClock                            0x08002c6c   Section        0  system_stm32f10x.o(i.SetSysClock)
    SetSysClock                              0x08002c6d   Thumb Code     8  system_stm32f10x.o(i.SetSysClock)
    i.SetSysClockTo72                        0x08002c74   Section        0  system_stm32f10x.o(i.SetSysClockTo72)
    SetSysClockTo72                          0x08002c75   Thumb Code   214  system_stm32f10x.o(i.SetSysClockTo72)
    i.SysTick_CLKSourceConfig                0x08002d54   Section        0  misc.o(i.SysTick_CLKSourceConfig)
    i.SysTick_Handler                        0x08002d7c   Section        0  delay.o(i.SysTick_Handler)
    i.SystemInit                             0x08002d8c   Section        0  system_stm32f10x.o(i.SystemInit)
    i.TIM3_IRQHandler                        0x08002dec   Section        0  timer.o(i.TIM3_IRQHandler)
    i.TIM3_Int_Init                          0x08002e20   Section        0  timer.o(i.TIM3_Int_Init)
    i.TIM_ClearITPendingBit                  0x08002e80   Section        0  stm32f10x_tim.o(i.TIM_ClearITPendingBit)
    i.TIM_Cmd                                0x08002e86   Section        0  stm32f10x_tim.o(i.TIM_Cmd)
    i.TIM_GetITStatus                        0x08002e9e   Section        0  stm32f10x_tim.o(i.TIM_GetITStatus)
    i.TIM_ITConfig                           0x08002ec0   Section        0  stm32f10x_tim.o(i.TIM_ITConfig)
    i.TIM_TimeBaseInit                       0x08002ed4   Section        0  stm32f10x_tim.o(i.TIM_TimeBaseInit)
    i.USART1_IRQHandler                      0x08002f78   Section        0  usart.o(i.USART1_IRQHandler)
    i.USART2_IRQHandler                      0x0800305c   Section        0  usart.o(i.USART2_IRQHandler)
    i.USART3_IRQHandler                      0x080030f0   Section        0  usart.o(i.USART3_IRQHandler)
    i.USART_ClearFlag                        0x080031e4   Section        0  stm32f10x_usart.o(i.USART_ClearFlag)
    i.USART_Cmd                              0x080031f6   Section        0  stm32f10x_usart.o(i.USART_Cmd)
    i.USART_DeInit                           0x08003210   Section        0  stm32f10x_usart.o(i.USART_DeInit)
    i.USART_GetFlagStatus                    0x080032ac   Section        0  stm32f10x_usart.o(i.USART_GetFlagStatus)
    i.USART_GetITStatus                      0x080032c6   Section        0  stm32f10x_usart.o(i.USART_GetITStatus)
    i.USART_ITConfig                         0x0800331a   Section        0  stm32f10x_usart.o(i.USART_ITConfig)
    i.USART_Init                             0x08003364   Section        0  stm32f10x_usart.o(i.USART_Init)
    i.USART_ReceiveData                      0x0800343c   Section        0  stm32f10x_usart.o(i.USART_ReceiveData)
    i.USART_SendData                         0x08003446   Section        0  stm32f10x_usart.o(i.USART_SendData)
    i.UsageFault_Handler                     0x0800344e   Section        0  stm32f10x_it.o(i.UsageFault_Handler)
    i._CMIOT_BLE_DataProcess                 0x08003454   Section        0  bluetooth.o(i._CMIOT_BLE_DataProcess)
    i._CMIOT_BLE_EnterPassthroughMode        0x0800375c   Section        0  bluetooth.o(i._CMIOT_BLE_EnterPassthroughMode)
    i._CMIOT_BLE_ExitPassthroughMode         0x080037d4   Section        0  bluetooth.o(i._CMIOT_BLE_ExitPassthroughMode)
    i._CMIOT_BLE_Init                        0x08003848   Section        0  bluetooth.o(i._CMIOT_BLE_Init)
    i._CMIOT_BLE_OffMaxPut                   0x080038b0   Section        0  bluetooth.o(i._CMIOT_BLE_OffMaxPut)
    i._CMIOT_BLE_RSP_attachTime              0x0800392c   Section        0  bluetooth.o(i._CMIOT_BLE_RSP_attachTime)
    i._CMIOT_BLE_RSP_comprehensiveTest       0x080039c8   Section        0  bluetooth.o(i._CMIOT_BLE_RSP_comprehensiveTest)
    i._CMIOT_BLE_RSP_deviceInfo              0x08003b3c   Section        0  bluetooth.o(i._CMIOT_BLE_RSP_deviceInfo)
    i._CMIOT_BLE_RSP_pingDelay               0x08003d08   Section        0  bluetooth.o(i._CMIOT_BLE_RSP_pingDelay)
    i._CMIOT_BLE_RSP_radioInfo               0x08003dbc   Section        0  bluetooth.o(i._CMIOT_BLE_RSP_radioInfo)
    i._CMIOT_BLE_Reboot                      0x08003ff4   Section        0  bluetooth.o(i._CMIOT_BLE_Reboot)
    i._CMIOT_BLE_SetName                     0x080040ec   Section        0  bluetooth.o(i._CMIOT_BLE_SetName)
    i._CMIOT_BLE_SetPacketInterval           0x080041a8   Section        0  bluetooth.o(i._CMIOT_BLE_SetPacketInterval)
    i._CMIOT_BatteryChargeGpioInit           0x08004224   Section        0  main.o(i._CMIOT_BatteryChargeGpioInit)
    i._CMIOT_BatteryCheckInit                0x0800424c   Section        0  main.o(i._CMIOT_BatteryCheckInit)
    i._CMIOT_BleReset                        0x08004258   Section        0  bluetooth.o(i._CMIOT_BleReset)
    i._CMIOT_BleResetGpioInit                0x0800427c   Section        0  bluetooth.o(i._CMIOT_BleResetGpioInit)
    i._CMIOT_BluetoothMode                   0x080042a8   Section        0  ui.o(i._CMIOT_BluetoothMode)
    i._CMIOT_BluetoothTaskProc               0x08004320   Section        0  main.o(i._CMIOT_BluetoothTaskProc)
    i._CMIOT_CLI_Init                        0x08004360   Section        0  user_cli.o(i._CMIOT_CLI_Init)
    i._CMIOT_CliTaskProc                     0x08004380   Section        0  main.o(i._CMIOT_CliTaskProc)
    i._CMIOT_Debug                           0x08004418   Section        0  common.o(i._CMIOT_Debug)
    i._CMIOT_ExecuteAtCmd                    0x08004468   Section        0  m5310.o(i._CMIOT_ExecuteAtCmd)
    i._CMIOT_ExecuteBLEAtCmd                 0x08004540   Section        0  bluetooth.o(i._CMIOT_ExecuteBLEAtCmd)
    i._CMIOT_GUI_Init                        0x08004618   Section        0  ui.o(i._CMIOT_GUI_Init)
    i._CMIOT_GetBleConnectedState            0x08004980   Section        0  bluetooth.o(i._CMIOT_GetBleConnectedState)
    i._CMIOT_GetICCID                        0x08004a94   Section        0  m5310.o(i._CMIOT_GetICCID)
    i._CMIOT_GetIMEI                         0x08004b78   Section        0  m5310.o(i._CMIOT_GetIMEI)
    i._CMIOT_GetIMSI                         0x08004c88   Section        0  m5310.o(i._CMIOT_GetIMSI)
    i._CMIOT_GetModuleName                   0x08004d74   Section        0  m5310.o(i._CMIOT_GetModuleName)
    i._CMIOT_GetModuleVersion                0x08004e64   Section        0  m5310.o(i._CMIOT_GetModuleVersion)
    i._CMIOT_GetNB_Band                      0x08004f58   Section        0  m5310.o(i._CMIOT_GetNB_Band)
    i._CMIOT_GetNetworkDelay                 0x08005074   Section        0  m5310.o(i._CMIOT_GetNetworkDelay)
    i._CMIOT_GetPLMN                         0x0800519c   Section        0  m5310.o(i._CMIOT_GetPLMN)
    i._CMIOT_GetUeCellStats                  0x0800526c   Section        0  m5310.o(i._CMIOT_GetUeCellStats)
    i._CMIOT_GetUeTHPStats                   0x08005418   Section        0  m5310.o(i._CMIOT_GetUeTHPStats)
    i._CMIOT_Get_PSM_TIMER_Value             0x08005774   Section        0  m5310.o(i._CMIOT_Get_PSM_TIMER_Value)
    i._CMIOT_IWDG_Configuration              0x08005a6c   Section        0  main.o(i._CMIOT_IWDG_Configuration)
    i._CMIOT_IsPdpAttached                   0x08005ae0   Section        0  m5310.o(i._CMIOT_IsPdpAttached)
    i._CMIOT_LcdTaskProc                     0x08005b84   Section        0  main.o(i._CMIOT_LcdTaskProc)
    i._CMIOT_M5310PowerGpioInit              0x08005bb4   Section        0  m5310.o(i._CMIOT_M5310PowerGpioInit)
    i._CMIOT_M5310TaskProc                   0x08005be0   Section        0  main.o(i._CMIOT_M5310TaskProc)
    i._CMIOT_M5310Uartbuf2Ble                0x08005c9c   Section        0  bluetooth.o(i._CMIOT_M5310Uartbuf2Ble)
    i._CMIOT_M5310_GetRegisterTime           0x08005d14   Section        0  m5310.o(i._CMIOT_M5310_GetRegisterTime)
    i._CMIOT_M5310_GetSignalstrength         0x08005e30   Section        0  m5310.o(i._CMIOT_M5310_GetSignalstrength)
    i._CMIOT_M5310_GetUeState                0x08005f00   Section        0  m5310.o(i._CMIOT_M5310_GetUeState)
    i._CMIOT_M5310_Init                      0x080062d8   Section        0  m5310.o(i._CMIOT_M5310_Init)
    i._CMIOT_NBIOT_Measurement               0x08006344   Section        0  ui.o(i._CMIOT_NBIOT_Measurement)
    i._CMIOT_NbModule_Reboot                 0x080063b0   Section        0  m5310.o(i._CMIOT_NbModule_Reboot)
    i._CMIOT_SetAutoConnect                  0x0800645c   Section        0  m5310.o(i._CMIOT_SetAutoConnect)
    i._CMIOT_SetMinFunctionalityState        0x0800654c   Section        0  m5310.o(i._CMIOT_SetMinFunctionalityState)
    i._CMIOT_SetScramblingState              0x08006608   Section        0  m5310.o(i._CMIOT_SetScramblingState)
    i._CMIOT_ShowBatteryLevel                0x08006710   Section        0  ui.o(i._CMIOT_ShowBatteryLevel)
    i._CMIOT_ShowBatteryTips                 0x08006858   Section        0  ui.o(i._CMIOT_ShowBatteryTips)
    i._CMIOT_ShowDeviceInfo                  0x08006a0c   Section        0  ui.o(i._CMIOT_ShowDeviceInfo)
    i._CMIOT_ShowInstructionMsg              0x08006d1c   Section        0  ui.o(i._CMIOT_ShowInstructionMsg)
    i._CMIOT_ShowNetworkRegTime              0x08006fa8   Section        0  ui.o(i._CMIOT_ShowNetworkRegTime)
    i._CMIOT_ShowPingResult                  0x0800746c   Section        0  ui.o(i._CMIOT_ShowPingResult)
    i._CMIOT_ShowRadioInfo                   0x080078a0   Section        0  ui.o(i._CMIOT_ShowRadioInfo)
    i._CMIOT_ShowSignalStrength              0x08007de0   Section        0  ui.o(i._CMIOT_ShowSignalStrength)
    i._CMIOT_ShowSpeedInfo                   0x08008290   Section        0  ui.o(i._CMIOT_ShowSpeedInfo)
    i._CMIOT_StartBatteryStateShow           0x08008460   Section        0  main.o(i._CMIOT_StartBatteryStateShow)
    i._CMIOT_StartTaskProc                   0x080084a4   Section        0  main.o(i._CMIOT_StartTaskProc)
    i._CMIOT_Str_EndWith                     0x08008554   Section        0  common.o(i._CMIOT_Str_EndWith)
    i._CMIOT_Str_StartWith                   0x080085a4   Section        0  common.o(i._CMIOT_Str_StartWith)
    i._CMIOT_TabIndex                        0x080085dc   Section        0  ui.o(i._CMIOT_TabIndex)
    i._CMIOT_UI_BootPage                     0x08009240   Section        0  ui.o(i._CMIOT_UI_BootPage)
    i._CMIOT_Uart_Init                       0x080092d4   Section        0  usart.o(i._CMIOT_Uart_Init)
    i._CMIOT_Uart_send                       0x080094d8   Section        0  usart.o(i._CMIOT_Uart_send)
    i._CMIOT_atoi                            0x08009518   Section        0  common.o(i._CMIOT_atoi)
    i.__0snprintf                            0x080095a0   Section        0  printfa.o(i.__0snprintf)
    i.__0sprintf                             0x080095c8   Section        0  printfa.o(i.__0sprintf)
    i.__0vsnprintf                           0x080095f0   Section        0  printfa.o(i.__0vsnprintf)
    i.__scatterload_copy                     0x08009614   Section       14  handlers.o(i.__scatterload_copy)
    i.__scatterload_null                     0x08009622   Section        2  handlers.o(i.__scatterload_null)
    i.__scatterload_zeroinit                 0x08009624   Section       14  handlers.o(i.__scatterload_zeroinit)
    i._fp_digits                             0x08009634   Section        0  printfa.o(i._fp_digits)
    _fp_digits                               0x08009635   Thumb Code   334  printfa.o(i._fp_digits)
    i._printf_core                           0x08009798   Section        0  printfa.o(i._printf_core)
    _printf_core                             0x08009799   Thumb Code  1744  printfa.o(i._printf_core)
    i._printf_post_padding                   0x08009e74   Section        0  printfa.o(i._printf_post_padding)
    _printf_post_padding                     0x08009e75   Thumb Code    36  printfa.o(i._printf_post_padding)
    i._printf_pre_padding                    0x08009e98   Section        0  printfa.o(i._printf_pre_padding)
    _printf_pre_padding                      0x08009e99   Thumb Code    46  printfa.o(i._printf_pre_padding)
    i._snputc                                0x08009ec6   Section        0  printfa.o(i._snputc)
    _snputc                                  0x08009ec7   Thumb Code    22  printfa.o(i._snputc)
    i._sputc                                 0x08009edc   Section        0  printfa.o(i._sputc)
    _sputc                                   0x08009edd   Thumb Code    10  printfa.o(i._sputc)
    i.cm_IsNbModuleAlive                     0x08009ee8   Section        0  m5310.o(i.cm_IsNbModuleAlive)
    i.cm_getAPN                              0x08009f6c   Section        0  m5310.o(i.cm_getAPN)
    i.cm_getBatteryVol                       0x0800a088   Section        0  adc.o(i.cm_getBatteryVol)
    i.cm_getbuildVersion                     0x0800a0c8   Section        0  common.o(i.cm_getbuildVersion)
    i.cm_key_init                            0x0800a220   Section        0  key.o(i.cm_key_init)
    i.cm_split                               0x0800a3fc   Section        0  common.o(i.cm_split)
    i.delay_init                             0x0800a468   Section        0  delay.o(i.delay_init)
    i.delay_ms                               0x0800a4b8   Section        0  delay.o(i.delay_ms)
    i.delay_us                               0x0800a4dc   Section        0  delay.o(i.delay_us)
    i.main                                   0x0800a524   Section        0  main.o(i.main)
    i.prvAddCurrentTaskToDelayedList         0x0800a754   Section        0  tasks.o(i.prvAddCurrentTaskToDelayedList)
    prvAddCurrentTaskToDelayedList           0x0800a755   Thumb Code   124  tasks.o(i.prvAddCurrentTaskToDelayedList)
    i.prvAddNewTaskToReadyList               0x0800a7ec   Section        0  tasks.o(i.prvAddNewTaskToReadyList)
    prvAddNewTaskToReadyList                 0x0800a7ed   Thumb Code   150  tasks.o(i.prvAddNewTaskToReadyList)
    i.prvCheckForValidListAndQueue           0x0800a8a0   Section        0  timers.o(i.prvCheckForValidListAndQueue)
    prvCheckForValidListAndQueue             0x0800a8a1   Thumb Code    72  timers.o(i.prvCheckForValidListAndQueue)
    i.prvCheckTasksWaitingTermination        0x0800a904   Section        0  tasks.o(i.prvCheckTasksWaitingTermination)
    prvCheckTasksWaitingTermination          0x0800a905   Thumb Code    60  tasks.o(i.prvCheckTasksWaitingTermination)
    i.prvCopyDataFromQueue                   0x0800a94c   Section        0  queue.o(i.prvCopyDataFromQueue)
    prvCopyDataFromQueue                     0x0800a94d   Thumb Code    42  queue.o(i.prvCopyDataFromQueue)
    i.prvCopyDataToQueue                     0x0800a976   Section        0  queue.o(i.prvCopyDataToQueue)
    prvCopyDataToQueue                       0x0800a977   Thumb Code   124  queue.o(i.prvCopyDataToQueue)
    i.prvDebugLevelCommand                   0x0800a9f4   Section        0  user_cli.o(i.prvDebugLevelCommand)
    i.prvDeleteTCB                           0x0800aaac   Section        0  tasks.o(i.prvDeleteTCB)
    prvDeleteTCB                             0x0800aaad   Thumb Code    18  tasks.o(i.prvDeleteTCB)
    i.prvEnableBleDebugModeCommand           0x0800aac0   Section        0  user_cli.o(i.prvEnableBleDebugModeCommand)
    i.prvEnableNbDebugModeCommand            0x0800ab78   Section        0  user_cli.o(i.prvEnableNbDebugModeCommand)
    i.prvGetHeapUsageCommand                 0x0800ac30   Section        0  user_cli.o(i.prvGetHeapUsageCommand)
    i.prvGetNextExpireTime                   0x0800ad78   Section        0  timers.o(i.prvGetNextExpireTime)
    prvGetNextExpireTime                     0x0800ad79   Thumb Code    36  timers.o(i.prvGetNextExpireTime)
    i.prvGetNumberOfParameters               0x0800ada0   Section        0  freertos_cli.o(i.prvGetNumberOfParameters)
    prvGetNumberOfParameters                 0x0800ada1   Thumb Code    46  freertos_cli.o(i.prvGetNumberOfParameters)
    i.prvGetSysTimeCommand                   0x0800add0   Section        0  user_cli.o(i.prvGetSysTimeCommand)
    i.prvGetWechatHistoryDataCommand         0x0800ae28   Section        0  user_cli.o(i.prvGetWechatHistoryDataCommand)
    i.prvGetWechatHistoryListCommand         0x0800af2c   Section        0  user_cli.o(i.prvGetWechatHistoryListCommand)
    i.prvHeapInit                            0x0800afc4   Section        0  heap_4.o(i.prvHeapInit)
    prvHeapInit                              0x0800afc5   Thumb Code    98  heap_4.o(i.prvHeapInit)
    i.prvHelpCommand                         0x0800b040   Section        0  freertos_cli.o(i.prvHelpCommand)
    prvHelpCommand                           0x0800b041   Thumb Code    66  freertos_cli.o(i.prvHelpCommand)
    i.prvIdleTask                            0x0800b08c   Section        0  tasks.o(i.prvIdleTask)
    prvIdleTask                              0x0800b08d   Thumb Code    32  tasks.o(i.prvIdleTask)
    i.prvInitialiseNewQueue                  0x0800b0b4   Section        0  queue.o(i.prvInitialiseNewQueue)
    prvInitialiseNewQueue                    0x0800b0b5   Thumb Code    42  queue.o(i.prvInitialiseNewQueue)
    i.prvInitialiseNewTask                   0x0800b0de   Section        0  tasks.o(i.prvInitialiseNewTask)
    prvInitialiseNewTask                     0x0800b0df   Thumb Code   146  tasks.o(i.prvInitialiseNewTask)
    i.prvInitialiseNewTimer                  0x0800b170   Section        0  timers.o(i.prvInitialiseNewTimer)
    prvInitialiseNewTimer                    0x0800b171   Thumb Code    46  timers.o(i.prvInitialiseNewTimer)
    i.prvInitialiseTaskLists                 0x0800b1a0   Section        0  tasks.o(i.prvInitialiseTaskLists)
    prvInitialiseTaskLists                   0x0800b1a1   Thumb Code    70  tasks.o(i.prvInitialiseTaskLists)
    i.prvInsertBlockIntoFreeList             0x0800b208   Section        0  heap_4.o(i.prvInsertBlockIntoFreeList)
    prvInsertBlockIntoFreeList               0x0800b209   Thumb Code    96  heap_4.o(i.prvInsertBlockIntoFreeList)
    i.prvInsertTimerInActiveList             0x0800b270   Section        0  timers.o(i.prvInsertTimerInActiveList)
    prvInsertTimerInActiveList               0x0800b271   Thumb Code    80  timers.o(i.prvInsertTimerInActiveList)
    i.prvIsQueueEmpty                        0x0800b2c8   Section        0  queue.o(i.prvIsQueueEmpty)
    prvIsQueueEmpty                          0x0800b2c9   Thumb Code    26  queue.o(i.prvIsQueueEmpty)
    i.prvIsQueueFull                         0x0800b2e2   Section        0  queue.o(i.prvIsQueueFull)
    prvIsQueueFull                           0x0800b2e3   Thumb Code    30  queue.o(i.prvIsQueueFull)
    i.prvNotifyQueueSetContainer             0x0800b300   Section        0  queue.o(i.prvNotifyQueueSetContainer)
    prvNotifyQueueSetContainer               0x0800b301   Thumb Code    82  queue.o(i.prvNotifyQueueSetContainer)
    i.prvProcessExpiredTimer                 0x0800b354   Section        0  timers.o(i.prvProcessExpiredTimer)
    prvProcessExpiredTimer                   0x0800b355   Thumb Code    70  timers.o(i.prvProcessExpiredTimer)
    i.prvProcessReceivedCommands             0x0800b3a0   Section        0  timers.o(i.prvProcessReceivedCommands)
    prvProcessReceivedCommands               0x0800b3a1   Thumb Code   200  timers.o(i.prvProcessReceivedCommands)
    i.prvProcessTimerOrBlockTask             0x0800b46c   Section        0  timers.o(i.prvProcessTimerOrBlockTask)
    prvProcessTimerOrBlockTask               0x0800b46d   Thumb Code   102  timers.o(i.prvProcessTimerOrBlockTask)
    i.prvResetNextTaskUnblockTime            0x0800b4e0   Section        0  tasks.o(i.prvResetNextTaskUnblockTime)
    prvResetNextTaskUnblockTime              0x0800b4e1   Thumb Code    42  tasks.o(i.prvResetNextTaskUnblockTime)
    i.prvSampleTimeNow                       0x0800b514   Section        0  timers.o(i.prvSampleTimeNow)
    prvSampleTimeNow                         0x0800b515   Thumb Code    40  timers.o(i.prvSampleTimeNow)
    i.prvSendAt2BleModuleCommand             0x0800b540   Section        0  user_cli.o(i.prvSendAt2BleModuleCommand)
    i.prvSendAt2NbModuleCommand              0x0800b588   Section        0  user_cli.o(i.prvSendAt2NbModuleCommand)
    i.prvSwitchTimerLists                    0x0800b5d0   Section        0  timers.o(i.prvSwitchTimerLists)
    prvSwitchTimerLists                      0x0800b5d1   Thumb Code   122  timers.o(i.prvSwitchTimerLists)
    i.prvTaskCheckFreeStackSpace             0x0800b654   Section        0  tasks.o(i.prvTaskCheckFreeStackSpace)
    prvTaskCheckFreeStackSpace               0x0800b655   Thumb Code    22  tasks.o(i.prvTaskCheckFreeStackSpace)
    i.prvTaskExitError                       0x0800b66a   Section        0  port.o(i.prvTaskExitError)
    prvTaskExitError                         0x0800b66b   Thumb Code    22  port.o(i.prvTaskExitError)
    i.prvTimerTask                           0x0800b680   Section        0  timers.o(i.prvTimerTask)
    prvTimerTask                             0x0800b681   Thumb Code    26  timers.o(i.prvTimerTask)
    i.prvUnlockQueue                         0x0800b69a   Section        0  queue.o(i.prvUnlockQueue)
    prvUnlockQueue                           0x0800b69b   Thumb Code   146  queue.o(i.prvUnlockQueue)
    i.pvPortMalloc                           0x0800b72c   Section        0  heap_4.o(i.pvPortMalloc)
    i.pxPortInitialiseStack                  0x0800b7fc   Section        0  port.o(i.pxPortInitialiseStack)
    i.ulTaskNotifyTake                       0x0800b820   Section        0  tasks.o(i.ulTaskNotifyTake)
    i.uxListRemove                           0x0800b894   Section        0  list.o(i.uxListRemove)
    i.uxTaskGetStackHighWaterMark            0x0800b8bc   Section        0  tasks.o(i.uxTaskGetStackHighWaterMark)
    i.vListInitialise                        0x0800b8e4   Section        0  list.o(i.vListInitialise)
    i.vListInitialiseItem                    0x0800b8fe   Section        0  list.o(i.vListInitialiseItem)
    i.vListInsert                            0x0800b904   Section        0  list.o(i.vListInsert)
    i.vListInsertEnd                         0x0800b938   Section        0  list.o(i.vListInsertEnd)
    i.vPortEnterCritical                     0x0800b950   Section        0  port.o(i.vPortEnterCritical)
    i.vPortExitCritical                      0x0800b974   Section        0  port.o(i.vPortExitCritical)
    i.vPortFree                              0x0800b994   Section        0  heap_4.o(i.vPortFree)
    i.vPortSetupTimerInterrupt               0x0800b9dc   Section        0  port.o(i.vPortSetupTimerInterrupt)
    i.vQueueAddToRegistry                    0x0800b9f4   Section        0  queue.o(i.vQueueAddToRegistry)
    i.vQueueWaitForMessageRestricted         0x0800ba20   Section        0  queue.o(i.vQueueWaitForMessageRestricted)
    i.vTaskDelay                             0x0800ba6c   Section        0  tasks.o(i.vTaskDelay)
    i.vTaskDelete                            0x0800baa0   Section        0  tasks.o(i.vTaskDelete)
    i.vTaskInternalSetTimeOutState           0x0800bb6c   Section        0  tasks.o(i.vTaskInternalSetTimeOutState)
    i.vTaskMissedYield                       0x0800bb84   Section        0  tasks.o(i.vTaskMissedYield)
    i.vTaskNotifyGiveFromISR                 0x0800bb90   Section        0  tasks.o(i.vTaskNotifyGiveFromISR)
    i.vTaskPlaceOnEventList                  0x0800bc44   Section        0  tasks.o(i.vTaskPlaceOnEventList)
    i.vTaskPlaceOnEventListRestricted        0x0800bc64   Section        0  tasks.o(i.vTaskPlaceOnEventListRestricted)
    i.vTaskStartScheduler                    0x0800bc8c   Section        0  tasks.o(i.vTaskStartScheduler)
    i.vTaskSuspendAll                        0x0800bd00   Section        0  tasks.o(i.vTaskSuspendAll)
    i.vTaskSwitchContext                     0x0800bd10   Section        0  tasks.o(i.vTaskSwitchContext)
    i.xPortGetFreeHeapSize                   0x0800bdb4   Section        0  heap_4.o(i.xPortGetFreeHeapSize)
    i.xPortStartScheduler                    0x0800bdc0   Section        0  port.o(i.xPortStartScheduler)
    i.xPortSysTickHandler                    0x0800bdf4   Section        0  port.o(i.xPortSysTickHandler)
    i.xQueueGenericCreate                    0x0800be28   Section        0  queue.o(i.xQueueGenericCreate)
    i.xQueueGenericReset                     0x0800be60   Section        0  queue.o(i.xQueueGenericReset)
    i.xQueueGenericSend                      0x0800bee0   Section        0  queue.o(i.xQueueGenericSend)
    i.xQueueGenericSendFromISR               0x0800c018   Section        0  queue.o(i.xQueueGenericSendFromISR)
    i.xQueueReceive                          0x0800c0b4   Section        0  queue.o(i.xQueueReceive)
    i.xTaskCheckForTimeOut                   0x0800c1b8   Section        0  tasks.o(i.xTaskCheckForTimeOut)
    i.xTaskCreate                            0x0800c214   Section        0  tasks.o(i.xTaskCreate)
    i.xTaskGetSchedulerState                 0x0800c274   Section        0  tasks.o(i.xTaskGetSchedulerState)
    i.xTaskGetTickCount                      0x0800c294   Section        0  tasks.o(i.xTaskGetTickCount)
    i.xTaskGetTickCountFromISR               0x0800c2a0   Section        0  tasks.o(i.xTaskGetTickCountFromISR)
    i.xTaskIncrementTick                     0x0800c2ac   Section        0  tasks.o(i.xTaskIncrementTick)
    i.xTaskPriorityDisinherit                0x0800c3c8   Section        0  tasks.o(i.xTaskPriorityDisinherit)
    i.xTaskRemoveFromEventList               0x0800c44c   Section        0  tasks.o(i.xTaskRemoveFromEventList)
    i.xTaskResumeAll                         0x0800c4cc   Section        0  tasks.o(i.xTaskResumeAll)
    i.xTimerCreate                           0x0800c5b4   Section        0  timers.o(i.xTimerCreate)
    i.xTimerCreateTimerTask                  0x0800c5e4   Section        0  timers.o(i.xTimerCreateTimerTask)
    i.xTimerGenericCommand                   0x0800c620   Section        0  timers.o(i.xTimerGenericCommand)
    .constdata                               0x0800c68c   Section      136  main.o(.constdata)
    __func__                                 0x0800c68c   Data           5  main.o(.constdata)
    __func__                                 0x0800c691   Data          21  main.o(.constdata)
    __func__                                 0x0800c6a6   Data          19  main.o(.constdata)
    __func__                                 0x0800c6b9   Data          19  main.o(.constdata)
    __func__                                 0x0800c6cc   Data          21  main.o(.constdata)
    __func__                                 0x0800c6e1   Data          25  main.o(.constdata)
    __func__                                 0x0800c6fa   Data          26  main.o(.constdata)
    .constdata                               0x0800c714   Section       16  freertos_cli.o(.constdata)
    xHelpCommand                             0x0800c714   Data          16  freertos_cli.o(.constdata)
    .constdata                               0x0800c724   Section     1404  m5310.o(.constdata)
    __func__                                 0x0800c724   Data          29  m5310.o(.constdata)
    __func__                                 0x0800c794   Data          20  m5310.o(.constdata)
    __func__                                 0x0800c7a8   Data          31  m5310.o(.constdata)
    __func__                                 0x0800c7f0   Data          24  m5310.o(.constdata)
    __func__                                 0x0800c830   Data          21  m5310.o(.constdata)
    __func__                                 0x0800c870   Data          24  m5310.o(.constdata)
    __func__                                 0x0800c8b0   Data          16  m5310.o(.constdata)
    __func__                                 0x0800c8e8   Data          15  m5310.o(.constdata)
    __func__                                 0x0800c920   Data          15  m5310.o(.constdata)
    __func__                                 0x0800c958   Data          15  m5310.o(.constdata)
    __func__                                 0x0800c990   Data          18  m5310.o(.constdata)
    __func__                                 0x0800c9cc   Data          27  m5310.o(.constdata)
    __func__                                 0x0800ca10   Data          23  m5310.o(.constdata)
    __func__                                 0x0800ca64   Data          19  m5310.o(.constdata)
    __func__                                 0x0800caa0   Data          22  m5310.o(.constdata)
    __func__                                 0x0800cae0   Data          21  m5310.o(.constdata)
    __func__                                 0x0800cb20   Data          10  m5310.o(.constdata)
    __func__                                 0x0800cb54   Data          21  m5310.o(.constdata)
    __func__                                 0x0800cb94   Data          22  m5310.o(.constdata)
    __func__                                 0x0800cbd4   Data          26  m5310.o(.constdata)
    __func__                                 0x0800cc18   Data          32  m5310.o(.constdata)
    __func__                                 0x0800cc60   Data          23  m5310.o(.constdata)
    .constdata                               0x0800cca0   Section    23159  st7789s.o(.constdata)
    .constdata                               0x08012717   Section    80558  ui.o(.constdata)
    __func__                                 0x08026177   Data          16  ui.o(.constdata)
    __func__                                 0x08026187   Data          21  ui.o(.constdata)
    __func__                                 0x0802619c   Data          25  ui.o(.constdata)
    __func__                                 0x080261b5   Data          16  ui.o(.constdata)
    .constdata                               0x080261c5   Section       72  key.o(.constdata)
    __func__                                 0x080261c5   Data          17  key.o(.constdata)
    __func__                                 0x080261d6   Data          17  key.o(.constdata)
    __func__                                 0x080261e7   Data          17  key.o(.constdata)
    __func__                                 0x080261f8   Data          21  key.o(.constdata)
    .constdata                               0x08026210   Section      690  bluetooth.o(.constdata)
    __func__                                 0x08026210   Data          23  bluetooth.o(.constdata)
    __func__                                 0x08026227   Data          28  bluetooth.o(.constdata)
    __func__                                 0x0802626c   Data          31  bluetooth.o(.constdata)
    __func__                                 0x080262b4   Data          21  bluetooth.o(.constdata)
    __func__                                 0x080262f4   Data          29  bluetooth.o(.constdata)
    __func__                                 0x0802633c   Data          19  bluetooth.o(.constdata)
    __func__                                 0x08026378   Data          32  bluetooth.o(.constdata)
    __func__                                 0x080263c0   Data          18  bluetooth.o(.constdata)
    __func__                                 0x080263fc   Data          24  bluetooth.o(.constdata)
    __func__                                 0x08026414   Data          16  bluetooth.o(.constdata)
    __func__                                 0x08026424   Data          26  bluetooth.o(.constdata)
    __func__                                 0x0802643e   Data          25  bluetooth.o(.constdata)
    __func__                                 0x08026457   Data          26  bluetooth.o(.constdata)
    __func__                                 0x08026471   Data          25  bluetooth.o(.constdata)
    __func__                                 0x0802648a   Data          33  bluetooth.o(.constdata)
    __func__                                 0x080264ab   Data          23  bluetooth.o(.constdata)
    .conststring                             0x080264c4   Section      221  freertos_cli.o(.conststring)
    .conststring                             0x080265a4   Section      672  user_cli.o(.conststring)
    .conststring                             0x08026844   Section       83  m5310.o(.conststring)
    .data                                    0x20000000   Section       20  stm32f10x_rcc.o(.data)
    APBAHBPrescTable                         0x20000000   Data          16  stm32f10x_rcc.o(.data)
    ADCPrescTable                            0x20000010   Data           4  stm32f10x_rcc.o(.data)
    .data                                    0x20000014   Section       34  main.o(.data)
    .data                                    0x20000038   Section       20  system_stm32f10x.o(.data)
    .data                                    0x2000004c   Section       68  tasks.o(.data)
    pxDelayedTaskList                        0x20000050   Data           4  tasks.o(.data)
    pxOverflowDelayedTaskList                0x20000054   Data           4  tasks.o(.data)
    uxDeletedTasksWaitingCleanUp             0x20000058   Data           4  tasks.o(.data)
    uxCurrentNumberOfTasks                   0x2000005c   Data           4  tasks.o(.data)
    xTickCount                               0x20000060   Data           4  tasks.o(.data)
    uxTopReadyPriority                       0x20000064   Data           4  tasks.o(.data)
    xSchedulerRunning                        0x20000068   Data           4  tasks.o(.data)
    uxPendedTicks                            0x2000006c   Data           4  tasks.o(.data)
    xYieldPending                            0x20000070   Data           4  tasks.o(.data)
    xNumOfOverflows                          0x20000074   Data           4  tasks.o(.data)
    uxTaskNumber                             0x20000078   Data           4  tasks.o(.data)
    xNextTaskUnblockTime                     0x2000007c   Data           4  tasks.o(.data)
    xIdleTaskHandle                          0x20000080   Data           4  tasks.o(.data)
    uxSchedulerSuspended                     0x20000084   Data           4  tasks.o(.data)
    ulTaskSwitchedInTime                     0x20000088   Data           4  tasks.o(.data)
    ulTotalRunTime                           0x2000008c   Data           4  tasks.o(.data)
    .data                                    0x20000090   Section       20  timers.o(.data)
    pxCurrentTimerList                       0x20000090   Data           4  timers.o(.data)
    pxOverflowTimerList                      0x20000094   Data           4  timers.o(.data)
    xTimerQueue                              0x20000098   Data           4  timers.o(.data)
    xTimerTaskHandle                         0x2000009c   Data           4  timers.o(.data)
    xLastTime                                0x200000a0   Data           4  timers.o(.data)
    .data                                    0x200000a4   Section       24  heap_4.o(.data)
    xStart                                   0x200000a4   Data           8  heap_4.o(.data)
    pxEnd                                    0x200000ac   Data           4  heap_4.o(.data)
    xFreeBytesRemaining                      0x200000b0   Data           4  heap_4.o(.data)
    xMinimumEverFreeBytesRemaining           0x200000b4   Data           4  heap_4.o(.data)
    xBlockAllocatedBit                       0x200000b8   Data           4  heap_4.o(.data)
    .data                                    0x200000bc   Section        4  port.o(.data)
    uxCriticalNesting                        0x200000bc   Data           4  port.o(.data)
    .data                                    0x200000c0   Section        1  delay.o(.data)
    fac_us                                   0x200000c0   Data           1  delay.o(.data)
    .data                                    0x200000c1   Section        2  usart.o(.data)
    .data                                    0x200000c8   Section        8  timer.o(.data)
    .data                                    0x200000d0   Section        1  common.o(.data)
    .data                                    0x200000d4   Section       20  freertos_cli.o(.data)
    xRegisteredCommands                      0x200000d4   Data           8  freertos_cli.o(.data)
    pxLastCommandInList                      0x200000dc   Data           4  freertos_cli.o(.data)
    pxCommand                                0x200000e0   Data           4  freertos_cli.o(.data)
    pxCommand                                0x200000e4   Data           4  freertos_cli.o(.data)
    .data                                    0x200000e8   Section      144  user_cli.o(.data)
    CliCommandList                           0x200000e8   Data         144  user_cli.o(.data)
    .data                                    0x20000178   Section        4  m5310.o(.data)
    .data                                    0x2000017c   Section     1966  st7789s.o(.data)
    .data                                    0x2000092c   Section       12  bluetooth.o(.data)
    .data                                    0x20000938   Section        4  strtok.o(.data)
    state                                    0x20000938   Data           4  strtok.o(.data)
    .bss                                     0x2000093c   Section      200  main.o(.bss)
    pcOutputString                           0x200009a0   Data         100  main.o(.bss)
    .bss                                     0x20000a04   Section       64  queue.o(.bss)
    .bss                                     0x20000a44   Section      200  tasks.o(.bss)
    pxReadyTasksLists                        0x20000a44   Data         100  tasks.o(.bss)
    xDelayedTaskList1                        0x20000aa8   Data          20  tasks.o(.bss)
    xDelayedTaskList2                        0x20000abc   Data          20  tasks.o(.bss)
    xPendingReadyList                        0x20000ad0   Data          20  tasks.o(.bss)
    xTasksWaitingTermination                 0x20000ae4   Data          20  tasks.o(.bss)
    xSuspendedTaskList                       0x20000af8   Data          20  tasks.o(.bss)
    .bss                                     0x20000b0c   Section       40  timers.o(.bss)
    xActiveTimerList1                        0x20000b0c   Data          20  timers.o(.bss)
    xActiveTimerList2                        0x20000b20   Data          20  timers.o(.bss)
    .bss                                     0x20000b34   Section    20480  heap_4.o(.bss)
    ucHeap                                   0x20000b34   Data       20480  heap_4.o(.bss)
    .bss                                     0x20005b34   Section      512  m5310.o(.bss)
    .bss                                     0x20005d34   Section      128  ui.o(.bss)
    msg                                      0x20005d34   Data         128  ui.o(.bss)
    .bss                                     0x20005db4   Section     1088  bluetooth.o(.bss)
    msg                                      0x200061b4   Data          64  bluetooth.o(.bss)
    STACK                                    0x200061f8   Section     1024  startup_stm32f10x_hd.o(STACK)

    Global Symbols

    Symbol Name                              Value     Ov Type        Size  Object(Section)

    BuildAttributes$$THM_ISAv4$P$D$K$B$S$PE$A:L22UL41UL21$X:L11$S22US41US21$IEEE1$IW$USESV6$~STKCKD$USESV7$~SHL$OTIME$ROPI$IEEEJ$EBA8$MICROLIB$REQ8$PRES8$EABIv2 0x00000000   Number         0  anon$$obj.o ABSOLUTE
    __ARM_use_no_argv                        0x00000000   Number         0  main.o ABSOLUTE
    _printf_a                                0x00000000   Number         0  stubs.o ABSOLUTE
    _printf_c                                0x00000000   Number         0  stubs.o ABSOLUTE
    _printf_charcount                        0x00000000   Number         0  stubs.o ABSOLUTE
    _printf_d                                0x00000000   Number         0  stubs.o ABSOLUTE
    _printf_e                                0x00000000   Number         0  stubs.o ABSOLUTE
    _printf_f                                0x00000000   Number         0  stubs.o ABSOLUTE
    _printf_flags                            0x00000000   Number         0  stubs.o ABSOLUTE
    _printf_fp_dec                           0x00000000   Number         0  stubs.o ABSOLUTE
    _printf_fp_hex                           0x00000000   Number         0  stubs.o ABSOLUTE
    _printf_g                                0x00000000   Number         0  stubs.o ABSOLUTE
    _printf_i                                0x00000000   Number         0  stubs.o ABSOLUTE
    _printf_int_dec                          0x00000000   Number         0  stubs.o ABSOLUTE
    _printf_l                                0x00000000   Number         0  stubs.o ABSOLUTE
    _printf_lc                               0x00000000   Number         0  stubs.o ABSOLUTE
    _printf_ll                               0x00000000   Number         0  stubs.o ABSOLUTE
    _printf_lld                              0x00000000   Number         0  stubs.o ABSOLUTE
    _printf_lli                              0x00000000   Number         0  stubs.o ABSOLUTE
    _printf_llo                              0x00000000   Number         0  stubs.o ABSOLUTE
    _printf_llu                              0x00000000   Number         0  stubs.o ABSOLUTE
    _printf_llx                              0x00000000   Number         0  stubs.o ABSOLUTE
    _printf_longlong_dec                     0x00000000   Number         0  stubs.o ABSOLUTE
    _printf_longlong_hex                     0x00000000   Number         0  stubs.o ABSOLUTE
    _printf_longlong_oct                     0x00000000   Number         0  stubs.o ABSOLUTE
    _printf_ls                               0x00000000   Number         0  stubs.o ABSOLUTE
    _printf_mbtowc                           0x00000000   Number         0  stubs.o ABSOLUTE
    _printf_n                                0x00000000   Number         0  stubs.o ABSOLUTE
    _printf_o                                0x00000000   Number         0  stubs.o ABSOLUTE
    _printf_p                                0x00000000   Number         0  stubs.o ABSOLUTE
    _printf_percent                          0x00000000   Number         0  stubs.o ABSOLUTE
    _printf_pre_padding                      0x00000000   Number         0  stubs.o ABSOLUTE
    _printf_return_value                     0x00000000   Number         0  stubs.o ABSOLUTE
    _printf_s                                0x00000000   Number         0  stubs.o ABSOLUTE
    _printf_sizespec                         0x00000000   Number         0  stubs.o ABSOLUTE
    _printf_str                              0x00000000   Number         0  stubs.o ABSOLUTE
    _printf_truncate_signed                  0x00000000   Number         0  stubs.o ABSOLUTE
    _printf_truncate_unsigned                0x00000000   Number         0  stubs.o ABSOLUTE
    _printf_u                                0x00000000   Number         0  stubs.o ABSOLUTE
    _printf_wc                               0x00000000   Number         0  stubs.o ABSOLUTE
    _printf_wctomb                           0x00000000   Number         0  stubs.o ABSOLUTE
    _printf_widthprec                        0x00000000   Number         0  stubs.o ABSOLUTE
    _printf_x                                0x00000000   Number         0  stubs.o ABSOLUTE
    __cpp_initialize__aeabi_                  - Undefined Weak Reference
    __cxa_finalize                            - Undefined Weak Reference
    _clock_init                               - Undefined Weak Reference
    _microlib_exit                            - Undefined Weak Reference
    __Vectors_Size                           0x00000130   Number         0  startup_stm32f10x_hd.o ABSOLUTE
    __Vectors                                0x08000000   Data           4  startup_stm32f10x_hd.o(RESET)
    __Vectors_End                            0x08000130   Data           0  startup_stm32f10x_hd.o(RESET)
    __main                                   0x08000131   Thumb Code     0  entry.o(.ARM.Collect$$$$00000000)
    _main_stk                                0x08000131   Thumb Code     0  entry2.o(.ARM.Collect$$$$00000001)
    _main_scatterload                        0x08000135   Thumb Code     0  entry5.o(.ARM.Collect$$$$00000004)
    __main_after_scatterload                 0x08000139   Thumb Code     0  entry5.o(.ARM.Collect$$$$00000004)
    _main_clock                              0x08000139   Thumb Code     0  entry7b.o(.ARM.Collect$$$$00000008)
    _main_cpp_init                           0x08000139   Thumb Code     0  entry8b.o(.ARM.Collect$$$$0000000A)
    _main_init                               0x08000139   Thumb Code     0  entry9a.o(.ARM.Collect$$$$0000000B)
    __rt_final_cpp                           0x08000141   Thumb Code     0  entry10a.o(.ARM.Collect$$$$0000000D)
    __rt_final_exit                          0x08000141   Thumb Code     0  entry11a.o(.ARM.Collect$$$$0000000F)
    SVC_Handler                              0x08000145   Thumb Code    32  port.o(.emb_text)
    __asm___6_port_c_39a90d8d__prvStartFirstTask 0x08000169   Thumb Code    28  port.o(.emb_text)
    PendSV_Handler                           0x08000189   Thumb Code    72  port.o(.emb_text)
    vPortGetIPSR                             0x080001d5   Thumb Code     6  port.o(.emb_text)
    Reset_Handler                            0x080001dd   Thumb Code     8  startup_stm32f10x_hd.o(.text)
    ADC1_2_IRQHandler                        0x080001f7   Thumb Code     0  startup_stm32f10x_hd.o(.text)
    ADC3_IRQHandler                          0x080001f7   Thumb Code     0  startup_stm32f10x_hd.o(.text)
    CAN1_RX1_IRQHandler                      0x080001f7   Thumb Code     0  startup_stm32f10x_hd.o(.text)
    CAN1_SCE_IRQHandler                      0x080001f7   Thumb Code     0  startup_stm32f10x_hd.o(.text)
    DMA1_Channel1_IRQHandler                 0x080001f7   Thumb Code     0  startup_stm32f10x_hd.o(.text)
    DMA1_Channel2_IRQHandler                 0x080001f7   Thumb Code     0  startup_stm32f10x_hd.o(.text)
    DMA1_Channel3_IRQHandler                 0x080001f7   Thumb Code     0  startup_stm32f10x_hd.o(.text)
    DMA1_Channel4_IRQHandler                 0x080001f7   Thumb Code     0  startup_stm32f10x_hd.o(.text)
    DMA1_Channel5_IRQHandler                 0x080001f7   Thumb Code     0  startup_stm32f10x_hd.o(.text)
    DMA1_Channel6_IRQHandler                 0x080001f7   Thumb Code     0  startup_stm32f10x_hd.o(.text)
    DMA1_Channel7_IRQHandler                 0x080001f7   Thumb Code     0  startup_stm32f10x_hd.o(.text)
    DMA2_Channel1_IRQHandler                 0x080001f7   Thumb Code     0  startup_stm32f10x_hd.o(.text)
    DMA2_Channel2_IRQHandler                 0x080001f7   Thumb Code     0  startup_stm32f10x_hd.o(.text)
    DMA2_Channel3_IRQHandler                 0x080001f7   Thumb Code     0  startup_stm32f10x_hd.o(.text)
    DMA2_Channel4_5_IRQHandler               0x080001f7   Thumb Code     0  startup_stm32f10x_hd.o(.text)
    EXTI0_IRQHandler                         0x080001f7   Thumb Code     0  startup_stm32f10x_hd.o(.text)
    EXTI1_IRQHandler                         0x080001f7   Thumb Code     0  startup_stm32f10x_hd.o(.text)
    EXTI9_5_IRQHandler                       0x080001f7   Thumb Code     0  startup_stm32f10x_hd.o(.text)
    FLASH_IRQHandler                         0x080001f7   Thumb Code     0  startup_stm32f10x_hd.o(.text)
    FSMC_IRQHandler                          0x080001f7   Thumb Code     0  startup_stm32f10x_hd.o(.text)
    I2C1_ER_IRQHandler                       0x080001f7   Thumb Code     0  startup_stm32f10x_hd.o(.text)
    I2C1_EV_IRQHandler                       0x080001f7   Thumb Code     0  startup_stm32f10x_hd.o(.text)
    I2C2_ER_IRQHandler                       0x080001f7   Thumb Code     0  startup_stm32f10x_hd.o(.text)
    I2C2_EV_IRQHandler                       0x080001f7   Thumb Code     0  startup_stm32f10x_hd.o(.text)
    PVD_IRQHandler                           0x080001f7   Thumb Code     0  startup_stm32f10x_hd.o(.text)
    RCC_IRQHandler                           0x080001f7   Thumb Code     0  startup_stm32f10x_hd.o(.text)
    RTCAlarm_IRQHandler                      0x080001f7   Thumb Code     0  startup_stm32f10x_hd.o(.text)
    RTC_IRQHandler                           0x080001f7   Thumb Code     0  startup_stm32f10x_hd.o(.text)
    SDIO_IRQHandler                          0x080001f7   Thumb Code     0  startup_stm32f10x_hd.o(.text)
    SPI1_IRQHandler                          0x080001f7   Thumb Code     0  startup_stm32f10x_hd.o(.text)
    SPI2_IRQHandler                          0x080001f7   Thumb Code     0  startup_stm32f10x_hd.o(.text)
    SPI3_IRQHandler                          0x080001f7   Thumb Code     0  startup_stm32f10x_hd.o(.text)
    TAMPER_IRQHandler                        0x080001f7   Thumb Code     0  startup_stm32f10x_hd.o(.text)
    TIM1_BRK_IRQHandler                      0x080001f7   Thumb Code     0  startup_stm32f10x_hd.o(.text)
    TIM1_CC_IRQHandler                       0x080001f7   Thumb Code     0  startup_stm32f10x_hd.o(.text)
    TIM1_TRG_COM_IRQHandler                  0x080001f7   Thumb Code     0  startup_stm32f10x_hd.o(.text)
    TIM1_UP_IRQHandler                       0x080001f7   Thumb Code     0  startup_stm32f10x_hd.o(.text)
    TIM2_IRQHandler                          0x080001f7   Thumb Code     0  startup_stm32f10x_hd.o(.text)
    TIM4_IRQHandler                          0x080001f7   Thumb Code     0  startup_stm32f10x_hd.o(.text)
    TIM5_IRQHandler                          0x080001f7   Thumb Code     0  startup_stm32f10x_hd.o(.text)
    TIM6_IRQHandler                          0x080001f7   Thumb Code     0  startup_stm32f10x_hd.o(.text)
    TIM7_IRQHandler                          0x080001f7   Thumb Code     0  startup_stm32f10x_hd.o(.text)
    TIM8_BRK_IRQHandler                      0x080001f7   Thumb Code     0  startup_stm32f10x_hd.o(.text)
    TIM8_CC_IRQHandler                       0x080001f7   Thumb Code     0  startup_stm32f10x_hd.o(.text)
    TIM8_TRG_COM_IRQHandler                  0x080001f7   Thumb Code     0  startup_stm32f10x_hd.o(.text)
    TIM8_UP_IRQHandler                       0x080001f7   Thumb Code     0  startup_stm32f10x_hd.o(.text)
    UART4_IRQHandler                         0x080001f7   Thumb Code     0  startup_stm32f10x_hd.o(.text)
    UART5_IRQHandler                         0x080001f7   Thumb Code     0  startup_stm32f10x_hd.o(.text)
    USBWakeUp_IRQHandler                     0x080001f7   Thumb Code     0  startup_stm32f10x_hd.o(.text)
    USB_HP_CAN1_TX_IRQHandler                0x080001f7   Thumb Code     0  startup_stm32f10x_hd.o(.text)
    USB_LP_CAN1_RX0_IRQHandler               0x080001f7   Thumb Code     0  startup_stm32f10x_hd.o(.text)
    WWDG_IRQHandler                          0x080001f7   Thumb Code     0  startup_stm32f10x_hd.o(.text)
    __aeabi_memcpy                           0x08000201   Thumb Code    36  memcpya.o(.text)
    __aeabi_memcpy4                          0x08000201   Thumb Code     0  memcpya.o(.text)
    __aeabi_memcpy8                          0x08000201   Thumb Code     0  memcpya.o(.text)
    __aeabi_memset                           0x08000225   Thumb Code    14  memseta.o(.text)
    __aeabi_memset4                          0x08000225   Thumb Code     0  memseta.o(.text)
    __aeabi_memset8                          0x08000225   Thumb Code     0  memseta.o(.text)
    __aeabi_memclr                           0x08000233   Thumb Code     4  memseta.o(.text)
    __aeabi_memclr4                          0x08000233   Thumb Code     0  memseta.o(.text)
    __aeabi_memclr8                          0x08000233   Thumb Code     0  memseta.o(.text)
    _memset$wrapper                          0x08000237   Thumb Code    18  memseta.o(.text)
    strcat                                   0x08000249   Thumb Code    24  strcat.o(.text)
    strstr                                   0x08000261   Thumb Code    36  strstr.o(.text)
    strncpy                                  0x08000285   Thumb Code    24  strncpy.o(.text)
    strlen                                   0x0800029d   Thumb Code    14  strlen.o(.text)
    strcmp                                   0x080002ab   Thumb Code    28  strcmp.o(.text)
    strncat                                  0x080002c7   Thumb Code    40  strncat.o(.text)
    strncmp                                  0x080002ef   Thumb Code    30  strncmp.o(.text)
    strtok                                   0x0800030d   Thumb Code    62  strtok.o(.text)
    __aeabi_fmul                             0x08000351   Thumb Code   100  fmul.o(.text)
    __aeabi_fdiv                             0x080003b5   Thumb Code   124  fdiv.o(.text)
    __aeabi_dadd                             0x08000431   Thumb Code   322  dadd.o(.text)
    __aeabi_dsub                             0x08000573   Thumb Code     6  dadd.o(.text)
    __aeabi_drsub                            0x08000579   Thumb Code     6  dadd.o(.text)
    __aeabi_dmul                             0x0800057f   Thumb Code   228  dmul.o(.text)
    __aeabi_i2f                              0x08000663   Thumb Code    18  fflti.o(.text)
    __aeabi_ui2f                             0x08000675   Thumb Code    10  ffltui.o(.text)
    __aeabi_f2d                              0x0800067f   Thumb Code    38  f2d.o(.text)
    __aeabi_cdrcmple                         0x080006a5   Thumb Code    48  cdrcmple.o(.text)
    __aeabi_d2f                              0x080006d5   Thumb Code    56  d2f.o(.text)
    __aeabi_cfrcmple                         0x0800070d   Thumb Code    20  cfrcmple.o(.text)
    __aeabi_uidiv                            0x08000721   Thumb Code     0  uidiv.o(.text)
    __aeabi_uidivmod                         0x08000721   Thumb Code    44  uidiv.o(.text)
    __aeabi_uldivmod                         0x0800074d   Thumb Code    98  uldiv.o(.text)
    __aeabi_llsl                             0x080007af   Thumb Code    30  llshl.o(.text)
    _ll_shift_l                              0x080007af   Thumb Code     0  llshl.o(.text)
    __aeabi_llsr                             0x080007cd   Thumb Code    32  llushr.o(.text)
    _ll_ushift_r                             0x080007cd   Thumb Code     0  llushr.o(.text)
    __aeabi_lasr                             0x080007ed   Thumb Code    36  llsshr.o(.text)
    _ll_sshift_r                             0x080007ed   Thumb Code     0  llsshr.o(.text)
    __I$use$fp                               0x08000811   Thumb Code     0  iusefp.o(.text)
    _float_round                             0x08000811   Thumb Code    18  fepilogue.o(.text)
    _float_epilogue                          0x08000823   Thumb Code    92  fepilogue.o(.text)
    _double_round                            0x0800087f   Thumb Code    30  depilogue.o(.text)
    _double_epilogue                         0x0800089d   Thumb Code   156  depilogue.o(.text)
    __aeabi_ddiv                             0x08000939   Thumb Code   222  ddiv.o(.text)
    __aeabi_d2ulz                            0x08000a17   Thumb Code    48  dfixul.o(.text)
    __scatterload                            0x08000a49   Thumb Code    28  init.o(.text)
    __scatterload_rt2                        0x08000a49   Thumb Code     0  init.o(.text)
    __decompress                             0x08000a6d   Thumb Code     0  __dczerorl2.o(.text)
    __decompress1                            0x08000a6d   Thumb Code    86  __dczerorl2.o(.text)
    ADC_Cmd                                  0x08000ac3   Thumb Code    22  stm32f10x_adc.o(i.ADC_Cmd)
    ADC_DeInit                               0x08000ad9   Thumb Code    78  stm32f10x_adc.o(i.ADC_DeInit)
    ADC_GetCalibrationStatus                 0x08000b35   Thumb Code    20  stm32f10x_adc.o(i.ADC_GetCalibrationStatus)
    ADC_GetConversionValue                   0x08000b49   Thumb Code     8  stm32f10x_adc.o(i.ADC_GetConversionValue)
    ADC_GetFlagStatus                        0x08000b51   Thumb Code    18  stm32f10x_adc.o(i.ADC_GetFlagStatus)
    ADC_GetResetCalibrationStatus            0x08000b63   Thumb Code    20  stm32f10x_adc.o(i.ADC_GetResetCalibrationStatus)
    ADC_Init                                 0x08000b79   Thumb Code    70  stm32f10x_adc.o(i.ADC_Init)
    ADC_RegularChannelConfig                 0x08000bc9   Thumb Code   184  stm32f10x_adc.o(i.ADC_RegularChannelConfig)
    ADC_ResetCalibration                     0x08000c81   Thumb Code    10  stm32f10x_adc.o(i.ADC_ResetCalibration)
    ADC_SoftwareStartConvCmd                 0x08000c8b   Thumb Code    22  stm32f10x_adc.o(i.ADC_SoftwareStartConvCmd)
    ADC_StartCalibration                     0x08000ca1   Thumb Code    10  stm32f10x_adc.o(i.ADC_StartCalibration)
    Adc_Init                                 0x08000cad   Thumb Code   132  adc.o(i.Adc_Init)
    BusFault_Handler                         0x08000d39   Thumb Code     4  stm32f10x_it.o(i.BusFault_Handler)
    ConfigureTimeForRunTimeStats             0x08000d3d   Thumb Code    22  timer.o(i.ConfigureTimeForRunTimeStats)
    DBGMCU_Config                            0x08000d59   Thumb Code    26  stm32f10x_dbgmcu.o(i.DBGMCU_Config)
    DebugMon_Handler                         0x08000d79   Thumb Code     2  stm32f10x_it.o(i.DebugMon_Handler)
    EXTI15_10_IRQHandler                     0x08000d7d   Thumb Code   220  key.o(i.EXTI15_10_IRQHandler)
    EXTI2_IRQHandler                         0x08000ed9   Thumb Code   120  key.o(i.EXTI2_IRQHandler)
    EXTI3_IRQHandler                         0x08000fad   Thumb Code   110  key.o(i.EXTI3_IRQHandler)
    EXTI4_IRQHandler                         0x08001079   Thumb Code   110  key.o(i.EXTI4_IRQHandler)
    EXTI_ClearITPendingBit                   0x08001145   Thumb Code     6  stm32f10x_exti.o(i.EXTI_ClearITPendingBit)
    EXTI_GetITStatus                         0x08001151   Thumb Code    34  stm32f10x_exti.o(i.EXTI_GetITStatus)
    EXTI_Init                                0x08001179   Thumb Code   142  stm32f10x_exti.o(i.EXTI_Init)
    FreeRTOS_CLIGetParameter                 0x0800120d   Thumb Code    92  freertos_cli.o(i.FreeRTOS_CLIGetParameter)
    FreeRTOS_CLIProcessCommand               0x08001269   Thumb Code   208  freertos_cli.o(i.FreeRTOS_CLIProcessCommand)
    FreeRTOS_CLIRegisterCommand              0x08001349   Thumb Code    46  freertos_cli.o(i.FreeRTOS_CLIRegisterCommand)
    GPIO_EXTILineConfig                      0x0800137d   Thumb Code    60  stm32f10x_gpio.o(i.GPIO_EXTILineConfig)
    GPIO_Init                                0x080013bd   Thumb Code   278  stm32f10x_gpio.o(i.GPIO_Init)
    GPIO_PinRemapConfig                      0x080014d5   Thumb Code   138  stm32f10x_gpio.o(i.GPIO_PinRemapConfig)
    GPIO_SetBits                             0x08001565   Thumb Code     4  stm32f10x_gpio.o(i.GPIO_SetBits)
    Get_Adc                                  0x08001569   Thumb Code    46  adc.o(i.Get_Adc)
    Get_Adc_Average                          0x0800159d   Thumb Code    46  adc.o(i.Get_Adc_Average)
    HardFault_Handler                        0x080015cb   Thumb Code     4  stm32f10x_it.o(i.HardFault_Handler)
    IWDG_Enable                              0x080015d1   Thumb Code    10  stm32f10x_iwdg.o(i.IWDG_Enable)
    IWDG_ReloadCounter                       0x080015e1   Thumb Code    10  stm32f10x_iwdg.o(i.IWDG_ReloadCounter)
    IWDG_SetPrescaler                        0x080015f1   Thumb Code     6  stm32f10x_iwdg.o(i.IWDG_SetPrescaler)
    IWDG_SetReload                           0x080015fd   Thumb Code     6  stm32f10x_iwdg.o(i.IWDG_SetReload)
    IWDG_WriteAccessCmd                      0x08001609   Thumb Code     6  stm32f10x_iwdg.o(i.IWDG_WriteAccessCmd)
    LCD_Clear                                0x08001615   Thumb Code    90  st7789s.o(i.LCD_Clear)
    LCD_DrawLine                             0x0800167d   Thumb Code   176  st7789s.o(i.LCD_DrawLine)
    LCD_DrawPoint                            0x0800172d   Thumb Code    86  st7789s.o(i.LCD_DrawPoint)
    LCD_DrawRectangle                        0x08001795   Thumb Code    64  st7789s.o(i.LCD_DrawRectangle)
    LCD_Fill                                 0x080017d5   Thumb Code   132  st7789s.o(i.LCD_Fill)
    LCD_GPIO_Init                            0x08001865   Thumb Code    72  st7789s.o(i.LCD_GPIO_Init)
    LCD_Init                                 0x080018b5   Thumb Code  1576  st7789s.o(i.LCD_Init)
    LCD_RESET                                0x08001ee5   Thumb Code    40  st7789s.o(i.LCD_RESET)
    LCD_SetCursor                            0x08001f11   Thumb Code   160  st7789s.o(i.LCD_SetCursor)
    LCD_ShowChar                             0x08001fb9   Thumb Code   436  st7789s.o(i.LCD_ShowChar)
    LCD_ShowChinese                          0x08002181   Thumb Code  1228  st7789s.o(i.LCD_ShowChinese)
    LCD_ShowFontEN                           0x08002651   Thumb Code   212  st7789s.o(i.LCD_ShowFontEN)
    LCD_ShowFontHZ                           0x0800272d   Thumb Code   478  st7789s.o(i.LCD_ShowFontHZ)
    LCD_ShowPicture                          0x08002919   Thumb Code    94  st7789s.o(i.LCD_ShowPicture)
    LCD_ShowString                           0x0800297d   Thumb Code   102  st7789s.o(i.LCD_ShowString)
    LCD_WR_REG                               0x080029e5   Thumb Code    36  st7789s.o(i.LCD_WR_REG)
    LCD_WriteRAM_Prepare                     0x08002a11   Thumb Code    10  st7789s.o(i.LCD_WriteRAM_Prepare)
    MemManage_Handler                        0x08002a1b   Thumb Code     4  stm32f10x_it.o(i.MemManage_Handler)
    NMI_Handler                              0x08002a1f   Thumb Code     2  stm32f10x_it.o(i.NMI_Handler)
    NVIC_Init                                0x08002a21   Thumb Code   100  misc.o(i.NVIC_Init)
    NVIC_PriorityGroupConfig                 0x08002a91   Thumb Code    10  misc.o(i.NVIC_PriorityGroupConfig)
    RCC_ADCCLKConfig                         0x08002aa5   Thumb Code    18  stm32f10x_rcc.o(i.RCC_ADCCLKConfig)
    RCC_APB1PeriphClockCmd                   0x08002abd   Thumb Code    26  stm32f10x_rcc.o(i.RCC_APB1PeriphClockCmd)
    RCC_APB1PeriphResetCmd                   0x08002add   Thumb Code    26  stm32f10x_rcc.o(i.RCC_APB1PeriphResetCmd)
    RCC_APB2PeriphClockCmd                   0x08002afd   Thumb Code    26  stm32f10x_rcc.o(i.RCC_APB2PeriphClockCmd)
    RCC_APB2PeriphResetCmd                   0x08002b1d   Thumb Code    26  stm32f10x_rcc.o(i.RCC_APB2PeriphResetCmd)
    RCC_ClearFlag                            0x08002b3d   Thumb Code    14  stm32f10x_rcc.o(i.RCC_ClearFlag)
    RCC_GetClocksFreq                        0x08002b51   Thumb Code   192  stm32f10x_rcc.o(i.RCC_GetClocksFreq)
    RCC_GetFlagStatus                        0x08002c25   Thumb Code    56  stm32f10x_rcc.o(i.RCC_GetFlagStatus)
    RCC_LSICmd                               0x08002c61   Thumb Code     6  stm32f10x_rcc.o(i.RCC_LSICmd)
    SysTick_CLKSourceConfig                  0x08002d55   Thumb Code    40  misc.o(i.SysTick_CLKSourceConfig)
    SysTick_Handler                          0x08002d7d   Thumb Code    16  delay.o(i.SysTick_Handler)
    SystemInit                               0x08002d8d   Thumb Code    78  system_stm32f10x.o(i.SystemInit)
    TIM3_IRQHandler                          0x08002ded   Thumb Code    42  timer.o(i.TIM3_IRQHandler)
    TIM3_Int_Init                            0x08002e21   Thumb Code    90  timer.o(i.TIM3_Int_Init)
    TIM_ClearITPendingBit                    0x08002e81   Thumb Code     6  stm32f10x_tim.o(i.TIM_ClearITPendingBit)
    TIM_Cmd                                  0x08002e87   Thumb Code    24  stm32f10x_tim.o(i.TIM_Cmd)
    TIM_GetITStatus                          0x08002e9f   Thumb Code    34  stm32f10x_tim.o(i.TIM_GetITStatus)
    TIM_ITConfig                             0x08002ec1   Thumb Code    18  stm32f10x_tim.o(i.TIM_ITConfig)
    TIM_TimeBaseInit                         0x08002ed5   Thumb Code   122  stm32f10x_tim.o(i.TIM_TimeBaseInit)
    USART1_IRQHandler                        0x08002f79   Thumb Code   174  usart.o(i.USART1_IRQHandler)
    USART2_IRQHandler                        0x0800305d   Thumb Code   132  usart.o(i.USART2_IRQHandler)
    USART3_IRQHandler                        0x080030f1   Thumb Code   176  usart.o(i.USART3_IRQHandler)
    USART_ClearFlag                          0x080031e5   Thumb Code    18  stm32f10x_usart.o(i.USART_ClearFlag)
    USART_Cmd                                0x080031f7   Thumb Code    24  stm32f10x_usart.o(i.USART_Cmd)
    USART_DeInit                             0x08003211   Thumb Code   134  stm32f10x_usart.o(i.USART_DeInit)
    USART_GetFlagStatus                      0x080032ad   Thumb Code    26  stm32f10x_usart.o(i.USART_GetFlagStatus)
    USART_GetITStatus                        0x080032c7   Thumb Code    84  stm32f10x_usart.o(i.USART_GetITStatus)
    USART_ITConfig                           0x0800331b   Thumb Code    74  stm32f10x_usart.o(i.USART_ITConfig)
    USART_Init                               0x08003365   Thumb Code   210  stm32f10x_usart.o(i.USART_Init)
    USART_ReceiveData                        0x0800343d   Thumb Code    10  stm32f10x_usart.o(i.USART_ReceiveData)
    USART_SendData                           0x08003447   Thumb Code     8  stm32f10x_usart.o(i.USART_SendData)
    UsageFault_Handler                       0x0800344f   Thumb Code     4  stm32f10x_it.o(i.UsageFault_Handler)
    _CMIOT_BLE_DataProcess                   0x08003455   Thumb Code   412  bluetooth.o(i._CMIOT_BLE_DataProcess)
    _CMIOT_BLE_EnterPassthroughMode          0x0800375d   Thumb Code    70  bluetooth.o(i._CMIOT_BLE_EnterPassthroughMode)
    _CMIOT_BLE_ExitPassthroughMode           0x080037d5   Thumb Code    70  bluetooth.o(i._CMIOT_BLE_ExitPassthroughMode)
    _CMIOT_BLE_Init                          0x08003849   Thumb Code    66  bluetooth.o(i._CMIOT_BLE_Init)
    _CMIOT_BLE_OffMaxPut                     0x080038b1   Thumb Code    70  bluetooth.o(i._CMIOT_BLE_OffMaxPut)
    _CMIOT_BLE_RSP_attachTime                0x0800392d   Thumb Code    82  bluetooth.o(i._CMIOT_BLE_RSP_attachTime)
    _CMIOT_BLE_RSP_comprehensiveTest         0x080039c9   Thumb Code   192  bluetooth.o(i._CMIOT_BLE_RSP_comprehensiveTest)
    _CMIOT_BLE_RSP_deviceInfo                0x08003b3d   Thumb Code   256  bluetooth.o(i._CMIOT_BLE_RSP_deviceInfo)
    _CMIOT_BLE_RSP_pingDelay                 0x08003d09   Thumb Code    90  bluetooth.o(i._CMIOT_BLE_RSP_pingDelay)
    _CMIOT_BLE_RSP_radioInfo                 0x08003dbd   Thumb Code   310  bluetooth.o(i._CMIOT_BLE_RSP_radioInfo)
    _CMIOT_BLE_Reboot                        0x08003ff5   Thumb Code   144  bluetooth.o(i._CMIOT_BLE_Reboot)
    _CMIOT_BLE_SetName                       0x080040ed   Thumb Code   130  bluetooth.o(i._CMIOT_BLE_SetName)
    _CMIOT_BLE_SetPacketInterval             0x080041a9   Thumb Code    70  bluetooth.o(i._CMIOT_BLE_SetPacketInterval)
    _CMIOT_BatteryChargeGpioInit             0x08004225   Thumb Code    34  main.o(i._CMIOT_BatteryChargeGpioInit)
    _CMIOT_BatteryCheckInit                  0x0800424d   Thumb Code    12  main.o(i._CMIOT_BatteryCheckInit)
    _CMIOT_BleReset                          0x08004259   Thumb Code    26  bluetooth.o(i._CMIOT_BleReset)
    _CMIOT_BleResetGpioInit                  0x0800427d   Thumb Code    40  bluetooth.o(i._CMIOT_BleResetGpioInit)
    _CMIOT_BluetoothMode                     0x080042a9   Thumb Code    66  ui.o(i._CMIOT_BluetoothMode)
    _CMIOT_BluetoothTaskProc                 0x08004321   Thumb Code    34  main.o(i._CMIOT_BluetoothTaskProc)
    _CMIOT_CLI_Init                          0x08004361   Thumb Code    26  user_cli.o(i._CMIOT_CLI_Init)
    _CMIOT_CliTaskProc                       0x08004381   Thumb Code   100  main.o(i._CMIOT_CliTaskProc)
    _CMIOT_Debug                             0x08004419   Thumb Code    70  common.o(i._CMIOT_Debug)
    _CMIOT_ExecuteAtCmd                      0x08004469   Thumb Code   142  m5310.o(i._CMIOT_ExecuteAtCmd)
    _CMIOT_ExecuteBLEAtCmd                   0x08004541   Thumb Code   142  bluetooth.o(i._CMIOT_ExecuteBLEAtCmd)
    _CMIOT_GUI_Init                          0x08004619   Thumb Code   660  ui.o(i._CMIOT_GUI_Init)
    _CMIOT_GetBleConnectedState              0x08004981   Thumb Code   140  bluetooth.o(i._CMIOT_GetBleConnectedState)
    _CMIOT_GetICCID                          0x08004a95   Thumb Code   144  m5310.o(i._CMIOT_GetICCID)
    _CMIOT_GetIMEI                           0x08004b79   Thumb Code   162  m5310.o(i._CMIOT_GetIMEI)
    _CMIOT_GetIMSI                           0x08004c89   Thumb Code   166  m5310.o(i._CMIOT_GetIMSI)
    _CMIOT_GetModuleName                     0x08004d75   Thumb Code   166  m5310.o(i._CMIOT_GetModuleName)
    _CMIOT_GetModuleVersion                  0x08004e65   Thumb Code   166  m5310.o(i._CMIOT_GetModuleVersion)
    _CMIOT_GetNB_Band                        0x08004f59   Thumb Code   196  m5310.o(i._CMIOT_GetNB_Band)
    _CMIOT_GetNetworkDelay                   0x08005075   Thumb Code   208  m5310.o(i._CMIOT_GetNetworkDelay)
    _CMIOT_GetPLMN                           0x0800519d   Thumb Code   148  m5310.o(i._CMIOT_GetPLMN)
    _CMIOT_GetUeCellStats                    0x0800526d   Thumb Code   286  m5310.o(i._CMIOT_GetUeCellStats)
    _CMIOT_GetUeTHPStats                     0x08005419   Thumb Code   444  m5310.o(i._CMIOT_GetUeTHPStats)
    _CMIOT_Get_PSM_TIMER_Value               0x08005775   Thumb Code   588  m5310.o(i._CMIOT_Get_PSM_TIMER_Value)
    _CMIOT_IWDG_Configuration                0x08005a6d   Thumb Code    94  main.o(i._CMIOT_IWDG_Configuration)
    _CMIOT_IsPdpAttached                     0x08005ae1   Thumb Code    88  m5310.o(i._CMIOT_IsPdpAttached)
    _CMIOT_LcdTaskProc                       0x08005b85   Thumb Code    26  main.o(i._CMIOT_LcdTaskProc)
    _CMIOT_M5310PowerGpioInit                0x08005bb5   Thumb Code    38  m5310.o(i._CMIOT_M5310PowerGpioInit)
    _CMIOT_M5310TaskProc                     0x08005be1   Thumb Code   114  main.o(i._CMIOT_M5310TaskProc)
    _CMIOT_M5310Uartbuf2Ble                  0x08005c9d   Thumb Code    60  bluetooth.o(i._CMIOT_M5310Uartbuf2Ble)
    _CMIOT_M5310_GetRegisterTime             0x08005d15   Thumb Code   156  m5310.o(i._CMIOT_M5310_GetRegisterTime)
    _CMIOT_M5310_GetSignalstrength           0x08005e31   Thumb Code   146  m5310.o(i._CMIOT_M5310_GetSignalstrength)
    _CMIOT_M5310_GetUeState                  0x08005f01   Thumb Code   666  m5310.o(i._CMIOT_M5310_GetUeState)
    _CMIOT_M5310_Init                        0x080062d9   Thumb Code    98  m5310.o(i._CMIOT_M5310_Init)
    _CMIOT_NBIOT_Measurement                 0x08006345   Thumb Code    88  ui.o(i._CMIOT_NBIOT_Measurement)
    _CMIOT_NbModule_Reboot                   0x080063b1   Thumb Code    82  m5310.o(i._CMIOT_NbModule_Reboot)
    _CMIOT_SetAutoConnect                    0x0800645d   Thumb Code   120  m5310.o(i._CMIOT_SetAutoConnect)
    _CMIOT_SetMinFunctionalityState          0x0800654d   Thumb Code   106  m5310.o(i._CMIOT_SetMinFunctionalityState)
    _CMIOT_SetScramblingState                0x08006609   Thumb Code   120  m5310.o(i._CMIOT_SetScramblingState)
    _CMIOT_ShowBatteryLevel                  0x08006711   Thumb Code   322  ui.o(i._CMIOT_ShowBatteryLevel)
    _CMIOT_ShowBatteryTips                   0x08006859   Thumb Code   358  ui.o(i._CMIOT_ShowBatteryTips)
    _CMIOT_ShowDeviceInfo                    0x08006a0d   Thumb Code   626  ui.o(i._CMIOT_ShowDeviceInfo)
    _CMIOT_ShowInstructionMsg                0x08006d1d   Thumb Code   300  ui.o(i._CMIOT_ShowInstructionMsg)
    _CMIOT_ShowNetworkRegTime                0x08006fa9   Thumb Code   970  ui.o(i._CMIOT_ShowNetworkRegTime)
    _CMIOT_ShowPingResult                    0x0800746d   Thumb Code   850  ui.o(i._CMIOT_ShowPingResult)
    _CMIOT_ShowRadioInfo                     0x080078a1   Thumb Code  1344  ui.o(i._CMIOT_ShowRadioInfo)
    _CMIOT_ShowSignalStrength                0x08007de1   Thumb Code  1200  ui.o(i._CMIOT_ShowSignalStrength)
    _CMIOT_ShowSpeedInfo                     0x08008291   Thumb Code   386  ui.o(i._CMIOT_ShowSpeedInfo)
    _CMIOT_StartBatteryStateShow             0x08008461   Thumb Code    46  main.o(i._CMIOT_StartBatteryStateShow)
    _CMIOT_StartTaskProc                     0x080084a5   Thumb Code    94  main.o(i._CMIOT_StartTaskProc)
    _CMIOT_Str_EndWith                       0x08008555   Thumb Code    80  common.o(i._CMIOT_Str_EndWith)
    _CMIOT_Str_StartWith                     0x080085a5   Thumb Code    56  common.o(i._CMIOT_Str_StartWith)
    _CMIOT_TabIndex                          0x080085dd   Thumb Code  3144  ui.o(i._CMIOT_TabIndex)
    _CMIOT_UI_BootPage                       0x08009241   Thumb Code   100  ui.o(i._CMIOT_UI_BootPage)
    _CMIOT_Uart_Init                         0x080092d5   Thumb Code   490  usart.o(i._CMIOT_Uart_Init)
    _CMIOT_Uart_send                         0x080094d9   Thumb Code    64  usart.o(i._CMIOT_Uart_send)
    _CMIOT_atoi                              0x08009519   Thumb Code   134  common.o(i._CMIOT_atoi)
    __0snprintf                              0x080095a1   Thumb Code    36  printfa.o(i.__0snprintf)
    __1snprintf                              0x080095a1   Thumb Code     0  printfa.o(i.__0snprintf)
    __2snprintf                              0x080095a1   Thumb Code     0  printfa.o(i.__0snprintf)
    __c89snprintf                            0x080095a1   Thumb Code     0  printfa.o(i.__0snprintf)
    snprintf                                 0x080095a1   Thumb Code     0  printfa.o(i.__0snprintf)
    __0sprintf                               0x080095c9   Thumb Code    34  printfa.o(i.__0sprintf)
    __1sprintf                               0x080095c9   Thumb Code     0  printfa.o(i.__0sprintf)
    __2sprintf                               0x080095c9   Thumb Code     0  printfa.o(i.__0sprintf)
    __c89sprintf                             0x080095c9   Thumb Code     0  printfa.o(i.__0sprintf)
    sprintf                                  0x080095c9   Thumb Code     0  printfa.o(i.__0sprintf)
    __0vsnprintf                             0x080095f1   Thumb Code    32  printfa.o(i.__0vsnprintf)
    __1vsnprintf                             0x080095f1   Thumb Code     0  printfa.o(i.__0vsnprintf)
    __2vsnprintf                             0x080095f1   Thumb Code     0  printfa.o(i.__0vsnprintf)
    __c89vsnprintf                           0x080095f1   Thumb Code     0  printfa.o(i.__0vsnprintf)
    vsnprintf                                0x080095f1   Thumb Code     0  printfa.o(i.__0vsnprintf)
    __scatterload_copy                       0x08009615   Thumb Code    14  handlers.o(i.__scatterload_copy)
    __scatterload_null                       0x08009623   Thumb Code     2  handlers.o(i.__scatterload_null)
    __scatterload_zeroinit                   0x08009625   Thumb Code    14  handlers.o(i.__scatterload_zeroinit)
    cm_IsNbModuleAlive                       0x08009ee9   Thumb Code    80  m5310.o(i.cm_IsNbModuleAlive)
    cm_getAPN                                0x08009f6d   Thumb Code   182  m5310.o(i.cm_getAPN)
    cm_getBatteryVol                         0x0800a089   Thumb Code    56  adc.o(i.cm_getBatteryVol)
    cm_getbuildVersion                       0x0800a0c9   Thumb Code   284  common.o(i.cm_getbuildVersion)
    cm_key_init                              0x0800a221   Thumb Code   460  key.o(i.cm_key_init)
    cm_split                                 0x0800a3fd   Thumb Code   106  common.o(i.cm_split)
    delay_init                               0x0800a469   Thumb Code    68  delay.o(i.delay_init)
    delay_ms                                 0x0800a4b9   Thumb Code    34  delay.o(i.delay_ms)
    delay_us                                 0x0800a4dd   Thumb Code    68  delay.o(i.delay_us)
    main                                     0x0800a525   Thumb Code   298  main.o(i.main)
    prvDebugLevelCommand                     0x0800a9f5   Thumb Code   108  user_cli.o(i.prvDebugLevelCommand)
    prvEnableBleDebugModeCommand             0x0800aac1   Thumb Code   108  user_cli.o(i.prvEnableBleDebugModeCommand)
    prvEnableNbDebugModeCommand              0x0800ab79   Thumb Code   108  user_cli.o(i.prvEnableNbDebugModeCommand)
    prvGetHeapUsageCommand                   0x0800ac31   Thumb Code   188  user_cli.o(i.prvGetHeapUsageCommand)
    prvGetSysTimeCommand                     0x0800add1   Thumb Code    54  user_cli.o(i.prvGetSysTimeCommand)
    prvGetWechatHistoryDataCommand           0x0800ae29   Thumb Code   124  user_cli.o(i.prvGetWechatHistoryDataCommand)
    prvGetWechatHistoryListCommand           0x0800af2d   Thumb Code    60  user_cli.o(i.prvGetWechatHistoryListCommand)
    prvSendAt2BleModuleCommand               0x0800b541   Thumb Code    64  user_cli.o(i.prvSendAt2BleModuleCommand)
    prvSendAt2NbModuleCommand                0x0800b589   Thumb Code    64  user_cli.o(i.prvSendAt2NbModuleCommand)
    pvPortMalloc                             0x0800b72d   Thumb Code   188  heap_4.o(i.pvPortMalloc)
    pxPortInitialiseStack                    0x0800b7fd   Thumb Code    30  port.o(i.pxPortInitialiseStack)
    ulTaskNotifyTake                         0x0800b821   Thumb Code   108  tasks.o(i.ulTaskNotifyTake)
    uxListRemove                             0x0800b895   Thumb Code    40  list.o(i.uxListRemove)
    uxTaskGetStackHighWaterMark              0x0800b8bd   Thumb Code    34  tasks.o(i.uxTaskGetStackHighWaterMark)
    vListInitialise                          0x0800b8e5   Thumb Code    26  list.o(i.vListInitialise)
    vListInitialiseItem                      0x0800b8ff   Thumb Code     6  list.o(i.vListInitialiseItem)
    vListInsert                              0x0800b905   Thumb Code    52  list.o(i.vListInsert)
    vListInsertEnd                           0x0800b939   Thumb Code    24  list.o(i.vListInsertEnd)
    vPortEnterCritical                       0x0800b951   Thumb Code    30  port.o(i.vPortEnterCritical)
    vPortExitCritical                        0x0800b975   Thumb Code    28  port.o(i.vPortExitCritical)
    vPortFree                                0x0800b995   Thumb Code    64  heap_4.o(i.vPortFree)
    vPortSetupTimerInterrupt                 0x0800b9dd   Thumb Code    20  port.o(i.vPortSetupTimerInterrupt)
    vQueueAddToRegistry                      0x0800b9f5   Thumb Code    38  queue.o(i.vQueueAddToRegistry)
    vQueueWaitForMessageRestricted           0x0800ba21   Thumb Code    74  queue.o(i.vQueueWaitForMessageRestricted)
    vTaskDelay                               0x0800ba6d   Thumb Code    46  tasks.o(i.vTaskDelay)
    vTaskDelete                              0x0800baa1   Thumb Code   166  tasks.o(i.vTaskDelete)
    vTaskInternalSetTimeOutState             0x0800bb6d   Thumb Code    14  tasks.o(i.vTaskInternalSetTimeOutState)
    vTaskMissedYield                         0x0800bb85   Thumb Code     8  tasks.o(i.vTaskMissedYield)
    vTaskNotifyGiveFromISR                   0x0800bb91   Thumb Code   154  tasks.o(i.vTaskNotifyGiveFromISR)
    vTaskPlaceOnEventList                    0x0800bc45   Thumb Code    28  tasks.o(i.vTaskPlaceOnEventList)
    vTaskPlaceOnEventListRestricted          0x0800bc65   Thumb Code    36  tasks.o(i.vTaskPlaceOnEventListRestricted)
    vTaskStartScheduler                      0x0800bc8d   Thumb Code    86  tasks.o(i.vTaskStartScheduler)
    vTaskSuspendAll                          0x0800bd01   Thumb Code    12  tasks.o(i.vTaskSuspendAll)
    vTaskSwitchContext                       0x0800bd11   Thumb Code   130  tasks.o(i.vTaskSwitchContext)
    xPortGetFreeHeapSize                     0x0800bdb5   Thumb Code     6  heap_4.o(i.xPortGetFreeHeapSize)
    xPortStartScheduler                      0x0800bdc1   Thumb Code    42  port.o(i.xPortStartScheduler)
    xPortSysTickHandler                      0x0800bdf5   Thumb Code    46  port.o(i.xPortSysTickHandler)
    xQueueGenericCreate                      0x0800be29   Thumb Code    56  queue.o(i.xQueueGenericCreate)
    xQueueGenericReset                       0x0800be61   Thumb Code   122  queue.o(i.xQueueGenericReset)
    xQueueGenericSend                        0x0800bee1   Thumb Code   308  queue.o(i.xQueueGenericSend)
    xQueueGenericSendFromISR                 0x0800c019   Thumb Code   156  queue.o(i.xQueueGenericSendFromISR)
    xQueueReceive                            0x0800c0b5   Thumb Code   256  queue.o(i.xQueueReceive)
    xTaskCheckForTimeOut                     0x0800c1b9   Thumb Code    84  tasks.o(i.xTaskCheckForTimeOut)
    xTaskCreate                              0x0800c215   Thumb Code    96  tasks.o(i.xTaskCreate)
    xTaskGetSchedulerState                   0x0800c275   Thumb Code    24  tasks.o(i.xTaskGetSchedulerState)
    xTaskGetTickCount                        0x0800c295   Thumb Code     6  tasks.o(i.xTaskGetTickCount)
    xTaskGetTickCountFromISR                 0x0800c2a1   Thumb Code     8  tasks.o(i.xTaskGetTickCountFromISR)
    xTaskIncrementTick                       0x0800c2ad   Thumb Code   238  tasks.o(i.xTaskIncrementTick)
    xTaskPriorityDisinherit                  0x0800c3c9   Thumb Code   122  tasks.o(i.xTaskPriorityDisinherit)
    xTaskRemoveFromEventList                 0x0800c44d   Thumb Code   104  tasks.o(i.xTaskRemoveFromEventList)
    xTaskResumeAll                           0x0800c4cd   Thumb Code   196  tasks.o(i.xTaskResumeAll)
    xTimerCreate                             0x0800c5b5   Thumb Code    48  timers.o(i.xTimerCreate)
    xTimerCreateTimerTask                    0x0800c5e5   Thumb Code    40  timers.o(i.xTimerCreateTimerTask)
    xTimerGenericCommand                     0x0800c621   Thumb Code   104  timers.o(i.xTimerGenericCommand)
    asc2_1206                                0x0800cca0   Data        1140  st7789s.o(.constdata)
    asc2_1608                                0x0800d114   Data        1520  st7789s.o(.constdata)
    ascii_3216                               0x0800d704   Data       12160  st7789s.o(.constdata)
    newArialCnChar24x24                      0x08010684   Data         456  st7789s.o(.constdata)
    newArialCnChar16x16                      0x0801084c   Data        4320  st7789s.o(.constdata)
    EnChar16x24                              0x0801192c   Data        1400  st7789s.o(.constdata)
    Arial24x27                               0x08011ea4   Data        1105  st7789s.o(.constdata)
    Yahei16x21                               0x080122f5   Data        1058  st7789s.o(.constdata)
    gImage_signalSign                        0x08012717   Data         600  ui.o(.constdata)
    gImage_chargePowerIcon                   0x0801296f   Data         400  ui.o(.constdata)
    BluetoothImage                           0x08012aff   Data        1080  ui.o(.constdata)
    LogoImage                                0x08012f37   Data        1800  ui.o(.constdata)
    BootImage                                0x0801363f   Data       20000  ui.o(.constdata)
    gImage_settingIcon                       0x0801845f   Data        5000  ui.o(.constdata)
    gImage_radioIcon                         0x080197e7   Data        5000  ui.o(.constdata)
    gImage_cellIcon                          0x0801ab6f   Data        5000  ui.o(.constdata)
    gImage_pingIcon                          0x0801bef7   Data        5000  ui.o(.constdata)
    gImage_speedIcon                         0x0801d27f   Data        5000  ui.o(.constdata)
    gImage_bluetoothIcon                     0x0801e607   Data        5000  ui.o(.constdata)
    gImage_instructionsIcon                  0x0801f98f   Data        5000  ui.o(.constdata)
    gImage_chargeIcon                        0x08020d17   Data         400  ui.o(.constdata)
    gImage_chargeBlackIcon                   0x08020ea7   Data         400  ui.o(.constdata)
    gImage_usbIcon                           0x08021037   Data         400  ui.o(.constdata)
    gImage_usbIcon_black                     0x080211c7   Data         400  ui.o(.constdata)
    gImage_qrCode                            0x08021357   Data       20000  ui.o(.constdata)
    Region$$Table$$Base                      0x08026898   Number         0  anon$$obj.o(Region$$Table)
    Region$$Table$$Limit                     0x080268b8   Number         0  anon$$obj.o(Region$$Table)
    UART_CLI_RxBufferLen                     0x20000014   Data           4  main.o(.data)
    CM_UI_BUSY                               0x20000018   Data           1  main.o(.data)
    start_task                               0x2000001c   Data           4  main.o(.data)
    cli_task                                 0x20000020   Data           4  main.o(.data)
    m5310_task                               0x20000024   Data           4  main.o(.data)
    lcd_task                                 0x20000028   Data           4  main.o(.data)
    bluetooth_task                           0x2000002c   Data           4  main.o(.data)
    menuPosition                             0x20000030   Data           6  main.o(.data)
    SystemCoreClock                          0x20000038   Data           4  system_stm32f10x.o(.data)
    AHBPrescTable                            0x2000003c   Data          16  system_stm32f10x.o(.data)
    pxCurrentTCB                             0x2000004c   Data           4  tasks.o(.data)
    NB_DEBUG_FLAG                            0x200000c1   Data           1  usart.o(.data)
    BLE_DEBUG_FLAG                           0x200000c2   Data           1  usart.o(.data)
    FreeRTOSRunTimeTicks                     0x200000c8   Data           8  timer.o(.data)
    DEBUG_FLAG                               0x200000d0   Data           1  common.o(.data)
    UART_M5310_RxBufferLen                   0x20000178   Data           4  m5310.o(.data)
    Arial16x18                               0x2000017c   Data        1960  st7789s.o(.data)
    POINT_COLOR                              0x20000924   Data           2  st7789s.o(.data)
    BACK_COLOR                               0x20000926   Data           2  st7789s.o(.data)
    DeviceCode                               0x20000928   Data           2  st7789s.o(.data)
    UART_BLE_RxBufferLen                     0x2000092c   Data           4  bluetooth.o(.data)
    BLE_AT_EXE_FLAG                          0x20000930   Data           1  bluetooth.o(.data)
    bleAtExeTimer                            0x20000934   Data           4  bluetooth.o(.data)
    UART_CLI_RxBuffer                        0x2000093c   Data         100  main.o(.bss)
    xQueueRegistry                           0x20000a04   Data          64  queue.o(.bss)
    UART_M5310_RxBuffer                      0x20005b34   Data         512  m5310.o(.bss)
    UART_BLE_RxBuffer                        0x20005db4   Data        1024  bluetooth.o(.bss)
    __initial_sp                             0x200065f8   Data           0  startup_stm32f10x_hd.o(STACK)



==============================================================================

Memory Map of the image

  Image Entry point : 0x08000131

  Load Region LR_IROM1 (Base: 0x08000000, Size: 0x000271f4, Max: 0x00040000, ABSOLUTE, COMPRESSED[0x00026f70])

    Execution Region ER_IROM1 (Base: 0x08000000, Size: 0x000268b8, Max: 0x00040000, ABSOLUTE)

    Base Addr    Size         Type   Attr      Idx    E Section Name        Object

    0x08000000   0x00000130   Data   RO            3    RESET               startup_stm32f10x_hd.o
    0x08000130   0x00000000   Code   RO         5447  * .ARM.Collect$$$$00000000  mc_w.l(entry.o)
    0x08000130   0x00000004   Code   RO         5759    .ARM.Collect$$$$00000001  mc_w.l(entry2.o)
    0x08000134   0x00000004   Code   RO         5762    .ARM.Collect$$$$00000004  mc_w.l(entry5.o)
    0x08000138   0x00000000   Code   RO         5764    .ARM.Collect$$$$00000008  mc_w.l(entry7b.o)
    0x08000138   0x00000000   Code   RO         5766    .ARM.Collect$$$$0000000A  mc_w.l(entry8b.o)
    0x08000138   0x00000008   Code   RO         5767    .ARM.Collect$$$$0000000B  mc_w.l(entry9a.o)
    0x08000140   0x00000000   Code   RO         5769    .ARM.Collect$$$$0000000D  mc_w.l(entry10a.o)
    0x08000140   0x00000000   Code   RO         5771    .ARM.Collect$$$$0000000F  mc_w.l(entry11a.o)
    0x08000140   0x00000004   Code   RO         5760    .ARM.Collect$$$$00002712  mc_w.l(entry2.o)
    0x08000144   0x00000096   Code   RO         4365    .emb_text           port.o
    0x080001da   0x00000002   PAD
    0x080001dc   0x00000024   Code   RO            4    .text               startup_stm32f10x_hd.o
    0x08000200   0x00000024   Code   RO         5450    .text               mc_w.l(memcpya.o)
    0x08000224   0x00000024   Code   RO         5452    .text               mc_w.l(memseta.o)
    0x08000248   0x00000018   Code   RO         5454    .text               mc_w.l(strcat.o)
    0x08000260   0x00000024   Code   RO         5456    .text               mc_w.l(strstr.o)
    0x08000284   0x00000018   Code   RO         5458    .text               mc_w.l(strncpy.o)
    0x0800029c   0x0000000e   Code   RO         5460    .text               mc_w.l(strlen.o)
    0x080002aa   0x0000001c   Code   RO         5462    .text               mc_w.l(strcmp.o)
    0x080002c6   0x00000028   Code   RO         5464    .text               mc_w.l(strncat.o)
    0x080002ee   0x0000001e   Code   RO         5466    .text               mc_w.l(strncmp.o)
    0x0800030c   0x00000044   Code   RO         5468    .text               mc_w.l(strtok.o)
    0x08000350   0x00000064   Code   RO         5737    .text               mf_w.l(fmul.o)
    0x080003b4   0x0000007c   Code   RO         5739    .text               mf_w.l(fdiv.o)
    0x08000430   0x0000014e   Code   RO         5741    .text               mf_w.l(dadd.o)
    0x0800057e   0x000000e4   Code   RO         5743    .text               mf_w.l(dmul.o)
    0x08000662   0x00000012   Code   RO         5745    .text               mf_w.l(fflti.o)
    0x08000674   0x0000000a   Code   RO         5747    .text               mf_w.l(ffltui.o)
    0x0800067e   0x00000026   Code   RO         5751    .text               mf_w.l(f2d.o)
    0x080006a4   0x00000030   Code   RO         5753    .text               mf_w.l(cdrcmple.o)
    0x080006d4   0x00000038   Code   RO         5755    .text               mf_w.l(d2f.o)
    0x0800070c   0x00000014   Code   RO         5757    .text               mf_w.l(cfrcmple.o)
    0x08000720   0x0000002c   Code   RO         5776    .text               mc_w.l(uidiv.o)
    0x0800074c   0x00000062   Code   RO         5778    .text               mc_w.l(uldiv.o)
    0x080007ae   0x0000001e   Code   RO         5780    .text               mc_w.l(llshl.o)
    0x080007cc   0x00000020   Code   RO         5782    .text               mc_w.l(llushr.o)
    0x080007ec   0x00000024   Code   RO         5784    .text               mc_w.l(llsshr.o)
    0x08000810   0x00000000   Code   RO         5786    .text               mc_w.l(iusefp.o)
    0x08000810   0x0000006e   Code   RO         5787    .text               mf_w.l(fepilogue.o)
    0x0800087e   0x000000ba   Code   RO         5789    .text               mf_w.l(depilogue.o)
    0x08000938   0x000000de   Code   RO         5791    .text               mf_w.l(ddiv.o)
    0x08000a16   0x00000030   Code   RO         5793    .text               mf_w.l(dfixul.o)
    0x08000a46   0x00000002   PAD
    0x08000a48   0x00000024   Code   RO         5795    .text               mc_w.l(init.o)
    0x08000a6c   0x00000056   Code   RO         5807    .text               mc_w.l(__dczerorl2.o)
    0x08000ac2   0x00000016   Code   RO          139    i.ADC_Cmd           stm32f10x_adc.o
    0x08000ad8   0x0000005c   Code   RO          141    i.ADC_DeInit        stm32f10x_adc.o
    0x08000b34   0x00000014   Code   RO          147    i.ADC_GetCalibrationStatus  stm32f10x_adc.o
    0x08000b48   0x00000008   Code   RO          148    i.ADC_GetConversionValue  stm32f10x_adc.o
    0x08000b50   0x00000012   Code   RO          150    i.ADC_GetFlagStatus  stm32f10x_adc.o
    0x08000b62   0x00000014   Code   RO          153    i.ADC_GetResetCalibrationStatus  stm32f10x_adc.o
    0x08000b76   0x00000002   PAD
    0x08000b78   0x00000050   Code   RO          157    i.ADC_Init          stm32f10x_adc.o
    0x08000bc8   0x000000b8   Code   RO          161    i.ADC_RegularChannelConfig  stm32f10x_adc.o
    0x08000c80   0x0000000a   Code   RO          162    i.ADC_ResetCalibration  stm32f10x_adc.o
    0x08000c8a   0x00000016   Code   RO          164    i.ADC_SoftwareStartConvCmd  stm32f10x_adc.o
    0x08000ca0   0x0000000a   Code   RO          166    i.ADC_StartCalibration  stm32f10x_adc.o
    0x08000caa   0x00000002   PAD
    0x08000cac   0x0000008c   Code   RO         5287    i.Adc_Init          adc.o
    0x08000d38   0x00000004   Code   RO         3229    i.BusFault_Handler  stm32f10x_it.o
    0x08000d3c   0x0000001c   Code   RO         4558    i.ConfigureTimeForRunTimeStats  timer.o
    0x08000d58   0x00000020   Code   RO          798    i.DBGMCU_Config     stm32f10x_dbgmcu.o
    0x08000d78   0x00000002   Code   RO         3230    i.DebugMon_Handler  stm32f10x_it.o
    0x08000d7a   0x00000002   PAD
    0x08000d7c   0x0000015c   Code   RO         5246    i.EXTI15_10_IRQHandler  key.o
    0x08000ed8   0x000000d4   Code   RO         5247    i.EXTI2_IRQHandler  key.o
    0x08000fac   0x000000cc   Code   RO         5248    i.EXTI3_IRQHandler  key.o
    0x08001078   0x000000cc   Code   RO         5249    i.EXTI4_IRQHandler  key.o
    0x08001144   0x0000000c   Code   RO          895    i.EXTI_ClearITPendingBit  stm32f10x_exti.o
    0x08001150   0x00000028   Code   RO          899    i.EXTI_GetITStatus  stm32f10x_exti.o
    0x08001178   0x00000094   Code   RO          900    i.EXTI_Init         stm32f10x_exti.o
    0x0800120c   0x0000005c   Code   RO         4644    i.FreeRTOS_CLIGetParameter  freertos_cli.o
    0x08001268   0x000000e0   Code   RO         4645    i.FreeRTOS_CLIProcessCommand  freertos_cli.o
    0x08001348   0x00000034   Code   RO         4646    i.FreeRTOS_CLIRegisterCommand  freertos_cli.o
    0x0800137c   0x00000040   Code   RO         1245    i.GPIO_EXTILineConfig  stm32f10x_gpio.o
    0x080013bc   0x00000116   Code   RO         1248    i.GPIO_Init         stm32f10x_gpio.o
    0x080014d2   0x00000002   PAD
    0x080014d4   0x00000090   Code   RO         1250    i.GPIO_PinRemapConfig  stm32f10x_gpio.o
    0x08001564   0x00000004   Code   RO         1256    i.GPIO_SetBits      stm32f10x_gpio.o
    0x08001568   0x00000034   Code   RO         5288    i.Get_Adc           adc.o
    0x0800159c   0x0000002e   Code   RO         5289    i.Get_Adc_Average   adc.o
    0x080015ca   0x00000004   Code   RO         3231    i.HardFault_Handler  stm32f10x_it.o
    0x080015ce   0x00000002   PAD
    0x080015d0   0x00000010   Code   RO         1560    i.IWDG_Enable       stm32f10x_iwdg.o
    0x080015e0   0x00000010   Code   RO         1562    i.IWDG_ReloadCounter  stm32f10x_iwdg.o
    0x080015f0   0x0000000c   Code   RO         1563    i.IWDG_SetPrescaler  stm32f10x_iwdg.o
    0x080015fc   0x0000000c   Code   RO         1564    i.IWDG_SetReload    stm32f10x_iwdg.o
    0x08001608   0x0000000c   Code   RO         1565    i.IWDG_WriteAccessCmd  stm32f10x_iwdg.o
    0x08001614   0x00000068   Code   RO         4929    i.LCD_Clear         st7789s.o
    0x0800167c   0x000000b0   Code   RO         4932    i.LCD_DrawLine      st7789s.o
    0x0800172c   0x00000068   Code   RO         4933    i.LCD_DrawPoint     st7789s.o
    0x08001794   0x00000040   Code   RO         4934    i.LCD_DrawRectangle  st7789s.o
    0x080017d4   0x00000090   Code   RO         4935    i.LCD_Fill          st7789s.o
    0x08001864   0x00000050   Code   RO         4936    i.LCD_GPIO_Init     st7789s.o
    0x080018b4   0x00000630   Code   RO         4937    i.LCD_Init          st7789s.o
    0x08001ee4   0x0000002c   Code   RO         4938    i.LCD_RESET         st7789s.o
    0x08001f10   0x000000a8   Code   RO         5101    i.LCD_SetCursor     st7789s.o
    0x08001fb8   0x000001c8   Code   RO         4941    i.LCD_ShowChar      st7789s.o
    0x08002180   0x000004d0   Code   RO         4942    i.LCD_ShowChinese   st7789s.o
    0x08002650   0x000000dc   Code   RO         4943    i.LCD_ShowFontEN    st7789s.o
    0x0800272c   0x000001ec   Code   RO         4944    i.LCD_ShowFontHZ    st7789s.o
    0x08002918   0x00000064   Code   RO         4947    i.LCD_ShowPicture   st7789s.o
    0x0800297c   0x00000066   Code   RO         4948    i.LCD_ShowString    st7789s.o
    0x080029e2   0x00000002   PAD
    0x080029e4   0x0000002c   Code   RO         4949    i.LCD_WR_REG        st7789s.o
    0x08002a10   0x0000000a   Code   RO         4951    i.LCD_WriteRAM_Prepare  st7789s.o
    0x08002a1a   0x00000004   Code   RO         3232    i.MemManage_Handler  stm32f10x_it.o
    0x08002a1e   0x00000002   Code   RO         3233    i.NMI_Handler       stm32f10x_it.o
    0x08002a20   0x00000070   Code   RO           10    i.NVIC_Init         misc.o
    0x08002a90   0x00000014   Code   RO           11    i.NVIC_PriorityGroupConfig  misc.o
    0x08002aa4   0x00000018   Code   RO         1662    i.RCC_ADCCLKConfig  stm32f10x_rcc.o
    0x08002abc   0x00000020   Code   RO         1664    i.RCC_APB1PeriphClockCmd  stm32f10x_rcc.o
    0x08002adc   0x00000020   Code   RO         1665    i.RCC_APB1PeriphResetCmd  stm32f10x_rcc.o
    0x08002afc   0x00000020   Code   RO         1666    i.RCC_APB2PeriphClockCmd  stm32f10x_rcc.o
    0x08002b1c   0x00000020   Code   RO         1667    i.RCC_APB2PeriphResetCmd  stm32f10x_rcc.o
    0x08002b3c   0x00000014   Code   RO         1670    i.RCC_ClearFlag     stm32f10x_rcc.o
    0x08002b50   0x000000d4   Code   RO         1674    i.RCC_GetClocksFreq  stm32f10x_rcc.o
    0x08002c24   0x0000003c   Code   RO         1675    i.RCC_GetFlagStatus  stm32f10x_rcc.o
    0x08002c60   0x0000000c   Code   RO         1683    i.RCC_LSICmd        stm32f10x_rcc.o
    0x08002c6c   0x00000008   Code   RO         3287    i.SetSysClock       system_stm32f10x.o
    0x08002c74   0x000000e0   Code   RO         3288    i.SetSysClockTo72   system_stm32f10x.o
    0x08002d54   0x00000028   Code   RO           14    i.SysTick_CLKSourceConfig  misc.o
    0x08002d7c   0x00000010   Code   RO         4436    i.SysTick_Handler   delay.o
    0x08002d8c   0x00000060   Code   RO         3290    i.SystemInit        system_stm32f10x.o
    0x08002dec   0x00000034   Code   RO         4559    i.TIM3_IRQHandler   timer.o
    0x08002e20   0x00000060   Code   RO         4560    i.TIM3_Int_Init     timer.o
    0x08002e80   0x00000006   Code   RO         2293    i.TIM_ClearITPendingBit  stm32f10x_tim.o
    0x08002e86   0x00000018   Code   RO         2298    i.TIM_Cmd           stm32f10x_tim.o
    0x08002e9e   0x00000022   Code   RO         2319    i.TIM_GetITStatus   stm32f10x_tim.o
    0x08002ec0   0x00000012   Code   RO         2323    i.TIM_ITConfig      stm32f10x_tim.o
    0x08002ed2   0x00000002   PAD
    0x08002ed4   0x000000a4   Code   RO         2369    i.TIM_TimeBaseInit  stm32f10x_tim.o
    0x08002f78   0x000000e4   Code   RO         4508    i.USART1_IRQHandler  usart.o
    0x0800305c   0x00000094   Code   RO         4509    i.USART2_IRQHandler  usart.o
    0x080030f0   0x000000f4   Code   RO         4510    i.USART3_IRQHandler  usart.o
    0x080031e4   0x00000012   Code   RO         2830    i.USART_ClearFlag   stm32f10x_usart.o
    0x080031f6   0x00000018   Code   RO         2834    i.USART_Cmd         stm32f10x_usart.o
    0x0800320e   0x00000002   PAD
    0x08003210   0x0000009c   Code   RO         2836    i.USART_DeInit      stm32f10x_usart.o
    0x080032ac   0x0000001a   Code   RO         2837    i.USART_GetFlagStatus  stm32f10x_usart.o
    0x080032c6   0x00000054   Code   RO         2838    i.USART_GetITStatus  stm32f10x_usart.o
    0x0800331a   0x0000004a   Code   RO         2840    i.USART_ITConfig    stm32f10x_usart.o
    0x08003364   0x000000d8   Code   RO         2841    i.USART_Init        stm32f10x_usart.o
    0x0800343c   0x0000000a   Code   RO         2848    i.USART_ReceiveData  stm32f10x_usart.o
    0x08003446   0x00000008   Code   RO         2851    i.USART_SendData    stm32f10x_usart.o
    0x0800344e   0x00000004   Code   RO         3234    i.UsageFault_Handler  stm32f10x_it.o
    0x08003452   0x00000002   PAD
    0x08003454   0x00000308   Code   RO         5320    i._CMIOT_BLE_DataProcess  bluetooth.o
    0x0800375c   0x00000078   Code   RO         5321    i._CMIOT_BLE_EnterPassthroughMode  bluetooth.o
    0x080037d4   0x00000074   Code   RO         5322    i._CMIOT_BLE_ExitPassthroughMode  bluetooth.o
    0x08003848   0x00000068   Code   RO         5323    i._CMIOT_BLE_Init   bluetooth.o
    0x080038b0   0x0000007c   Code   RO         5324    i._CMIOT_BLE_OffMaxPut  bluetooth.o
    0x0800392c   0x0000009c   Code   RO         5325    i._CMIOT_BLE_RSP_attachTime  bluetooth.o
    0x080039c8   0x00000174   Code   RO         5326    i._CMIOT_BLE_RSP_comprehensiveTest  bluetooth.o
    0x08003b3c   0x000001cc   Code   RO         5327    i._CMIOT_BLE_RSP_deviceInfo  bluetooth.o
    0x08003d08   0x000000b4   Code   RO         5328    i._CMIOT_BLE_RSP_pingDelay  bluetooth.o
    0x08003dbc   0x00000238   Code   RO         5329    i._CMIOT_BLE_RSP_radioInfo  bluetooth.o
    0x08003ff4   0x000000f8   Code   RO         5330    i._CMIOT_BLE_Reboot  bluetooth.o
    0x080040ec   0x000000bc   Code   RO         5331    i._CMIOT_BLE_SetName  bluetooth.o
    0x080041a8   0x0000007c   Code   RO         5332    i._CMIOT_BLE_SetPacketInterval  bluetooth.o
    0x08004224   0x00000028   Code   RO         3064    i._CMIOT_BatteryChargeGpioInit  main.o
    0x0800424c   0x0000000c   Code   RO         3065    i._CMIOT_BatteryCheckInit  main.o
    0x08004258   0x00000024   Code   RO         5333    i._CMIOT_BleReset   bluetooth.o
    0x0800427c   0x0000002c   Code   RO         5334    i._CMIOT_BleResetGpioInit  bluetooth.o
    0x080042a8   0x00000078   Code   RO         5116    i._CMIOT_BluetoothMode  ui.o
    0x08004320   0x00000040   Code   RO         3066    i._CMIOT_BluetoothTaskProc  main.o
    0x08004360   0x00000020   Code   RO         4691    i._CMIOT_CLI_Init   user_cli.o
    0x08004380   0x00000098   Code   RO         3067    i._CMIOT_CliTaskProc  main.o
    0x08004418   0x00000050   Code   RO         4588    i._CMIOT_Debug      common.o
    0x08004468   0x000000d8   Code   RO         4767    i._CMIOT_ExecuteAtCmd  m5310.o
    0x08004540   0x000000d8   Code   RO         5335    i._CMIOT_ExecuteBLEAtCmd  bluetooth.o
    0x08004618   0x00000368   Code   RO         5118    i._CMIOT_GUI_Init   ui.o
    0x08004980   0x00000114   Code   RO         5336    i._CMIOT_GetBleConnectedState  bluetooth.o
    0x08004a94   0x000000e4   Code   RO         4768    i._CMIOT_GetICCID   m5310.o
    0x08004b78   0x00000110   Code   RO         4769    i._CMIOT_GetIMEI    m5310.o
    0x08004c88   0x000000ec   Code   RO         4770    i._CMIOT_GetIMSI    m5310.o
    0x08004d74   0x000000f0   Code   RO         4771    i._CMIOT_GetModuleName  m5310.o
    0x08004e64   0x000000f4   Code   RO         4772    i._CMIOT_GetModuleVersion  m5310.o
    0x08004f58   0x0000011c   Code   RO         4773    i._CMIOT_GetNB_Band  m5310.o
    0x08005074   0x00000128   Code   RO         4774    i._CMIOT_GetNetworkDelay  m5310.o
    0x0800519c   0x000000d0   Code   RO         4775    i._CMIOT_GetPLMN    m5310.o
    0x0800526c   0x000001ac   Code   RO         4776    i._CMIOT_GetUeCellStats  m5310.o
    0x08005418   0x0000035c   Code   RO         4777    i._CMIOT_GetUeTHPStats  m5310.o
    0x08005774   0x000002f8   Code   RO         4778    i._CMIOT_Get_PSM_TIMER_Value  m5310.o
    0x08005a6c   0x00000074   Code   RO         3068    i._CMIOT_IWDG_Configuration  main.o
    0x08005ae0   0x000000a4   Code   RO         4779    i._CMIOT_IsPdpAttached  m5310.o
    0x08005b84   0x00000030   Code   RO         3070    i._CMIOT_LcdTaskProc  main.o
    0x08005bb4   0x0000002c   Code   RO         4780    i._CMIOT_M5310PowerGpioInit  m5310.o
    0x08005be0   0x000000bc   Code   RO         3071    i._CMIOT_M5310TaskProc  main.o
    0x08005c9c   0x00000078   Code   RO         5337    i._CMIOT_M5310Uartbuf2Ble  bluetooth.o
    0x08005d14   0x0000011c   Code   RO         4781    i._CMIOT_M5310_GetRegisterTime  m5310.o
    0x08005e30   0x000000d0   Code   RO         4782    i._CMIOT_M5310_GetSignalstrength  m5310.o
    0x08005f00   0x000003d8   Code   RO         4783    i._CMIOT_M5310_GetUeState  m5310.o
    0x080062d8   0x0000006c   Code   RO         4784    i._CMIOT_M5310_Init  m5310.o
    0x08006344   0x0000006c   Code   RO         5119    i._CMIOT_NBIOT_Measurement  ui.o
    0x080063b0   0x000000ac   Code   RO         4785    i._CMIOT_NbModule_Reboot  m5310.o
    0x0800645c   0x000000f0   Code   RO         4786    i._CMIOT_SetAutoConnect  m5310.o
    0x0800654c   0x000000bc   Code   RO         4787    i._CMIOT_SetMinFunctionalityState  m5310.o
    0x08006608   0x00000108   Code   RO         4788    i._CMIOT_SetScramblingState  m5310.o
    0x08006710   0x00000148   Code   RO         5120    i._CMIOT_ShowBatteryLevel  ui.o
    0x08006858   0x000001b4   Code   RO         5121    i._CMIOT_ShowBatteryTips  ui.o
    0x08006a0c   0x00000310   Code   RO         5122    i._CMIOT_ShowDeviceInfo  ui.o
    0x08006d1c   0x0000028c   Code   RO         5123    i._CMIOT_ShowInstructionMsg  ui.o
    0x08006fa8   0x000004c4   Code   RO         5124    i._CMIOT_ShowNetworkRegTime  ui.o
    0x0800746c   0x00000434   Code   RO         5125    i._CMIOT_ShowPingResult  ui.o
    0x080078a0   0x00000540   Code   RO         5126    i._CMIOT_ShowRadioInfo  ui.o
    0x08007de0   0x000004b0   Code   RO         5127    i._CMIOT_ShowSignalStrength  ui.o
    0x08008290   0x000001d0   Code   RO         5128    i._CMIOT_ShowSpeedInfo  ui.o
    0x08008460   0x00000044   Code   RO         3072    i._CMIOT_StartBatteryStateShow  main.o
    0x080084a4   0x000000b0   Code   RO         3073    i._CMIOT_StartTaskProc  main.o
    0x08008554   0x00000050   Code   RO         4589    i._CMIOT_Str_EndWith  common.o
    0x080085a4   0x00000038   Code   RO         4590    i._CMIOT_Str_StartWith  common.o
    0x080085dc   0x00000c64   Code   RO         5129    i._CMIOT_TabIndex   ui.o
    0x08009240   0x00000094   Code   RO         5130    i._CMIOT_UI_BootPage  ui.o
    0x080092d4   0x00000204   Code   RO         4511    i._CMIOT_Uart_Init  usart.o
    0x080094d8   0x00000040   Code   RO         4512    i._CMIOT_Uart_send  usart.o
    0x08009518   0x00000086   Code   RO         4591    i._CMIOT_atoi       common.o
    0x0800959e   0x00000002   PAD
    0x080095a0   0x00000028   Code   RO         5710    i.__0snprintf       mc_w.l(printfa.o)
    0x080095c8   0x00000028   Code   RO         5711    i.__0sprintf        mc_w.l(printfa.o)
    0x080095f0   0x00000024   Code   RO         5714    i.__0vsnprintf      mc_w.l(printfa.o)
    0x08009614   0x0000000e   Code   RO         5801    i.__scatterload_copy  mc_w.l(handlers.o)
    0x08009622   0x00000002   Code   RO         5802    i.__scatterload_null  mc_w.l(handlers.o)
    0x08009624   0x0000000e   Code   RO         5803    i.__scatterload_zeroinit  mc_w.l(handlers.o)
    0x08009632   0x00000002   PAD
    0x08009634   0x00000164   Code   RO         5716    i._fp_digits        mc_w.l(printfa.o)
    0x08009798   0x000006dc   Code   RO         5717    i._printf_core      mc_w.l(printfa.o)
    0x08009e74   0x00000024   Code   RO         5718    i._printf_post_padding  mc_w.l(printfa.o)
    0x08009e98   0x0000002e   Code   RO         5719    i._printf_pre_padding  mc_w.l(printfa.o)
    0x08009ec6   0x00000016   Code   RO         5720    i._snputc           mc_w.l(printfa.o)
    0x08009edc   0x0000000a   Code   RO         5721    i._sputc            mc_w.l(printfa.o)
    0x08009ee6   0x00000002   PAD
    0x08009ee8   0x00000084   Code   RO         4789    i.cm_IsNbModuleAlive  m5310.o
    0x08009f6c   0x0000011c   Code   RO         4790    i.cm_getAPN         m5310.o
    0x0800a088   0x00000040   Code   RO         5290    i.cm_getBatteryVol  adc.o
    0x0800a0c8   0x00000158   Code   RO         4592    i.cm_getbuildVersion  common.o
    0x0800a220   0x000001dc   Code   RO         5250    i.cm_key_init       key.o
    0x0800a3fc   0x0000006a   Code   RO         4593    i.cm_split          common.o
    0x0800a466   0x00000002   PAD
    0x0800a468   0x00000050   Code   RO         4437    i.delay_init        delay.o
    0x0800a4b8   0x00000022   Code   RO         4438    i.delay_ms          delay.o
    0x0800a4da   0x00000002   PAD
    0x0800a4dc   0x00000048   Code   RO         4439    i.delay_us          delay.o
    0x0800a524   0x00000230   Code   RO         3074    i.main              main.o
    0x0800a754   0x00000098   Code   RO         3848    i.prvAddCurrentTaskToDelayedList  tasks.o
    0x0800a7ec   0x000000b4   Code   RO         3849    i.prvAddNewTaskToReadyList  tasks.o
    0x0800a8a0   0x00000064   Code   RO         4186    i.prvCheckForValidListAndQueue  timers.o
    0x0800a904   0x00000048   Code   RO         3850    i.prvCheckTasksWaitingTermination  tasks.o
    0x0800a94c   0x0000002a   Code   RO         3487    i.prvCopyDataFromQueue  queue.o
    0x0800a976   0x0000007c   Code   RO         3488    i.prvCopyDataToQueue  queue.o
    0x0800a9f2   0x00000002   PAD
    0x0800a9f4   0x000000b8   Code   RO         4692    i.prvDebugLevelCommand  user_cli.o
    0x0800aaac   0x00000012   Code   RO         3851    i.prvDeleteTCB      tasks.o
    0x0800aabe   0x00000002   PAD
    0x0800aac0   0x000000b8   Code   RO         4693    i.prvEnableBleDebugModeCommand  user_cli.o
    0x0800ab78   0x000000b8   Code   RO         4694    i.prvEnableNbDebugModeCommand  user_cli.o
    0x0800ac30   0x00000148   Code   RO         4695    i.prvGetHeapUsageCommand  user_cli.o
    0x0800ad78   0x00000028   Code   RO         4187    i.prvGetNextExpireTime  timers.o
    0x0800ada0   0x0000002e   Code   RO         4647    i.prvGetNumberOfParameters  freertos_cli.o
    0x0800adce   0x00000002   PAD
    0x0800add0   0x00000058   Code   RO         4696    i.prvGetSysTimeCommand  user_cli.o
    0x0800ae28   0x00000104   Code   RO         4697    i.prvGetWechatHistoryDataCommand  user_cli.o
    0x0800af2c   0x00000098   Code   RO         4698    i.prvGetWechatHistoryListCommand  user_cli.o
    0x0800afc4   0x0000007c   Code   RO         4316    i.prvHeapInit       heap_4.o
    0x0800b040   0x0000004c   Code   RO         4648    i.prvHelpCommand    freertos_cli.o
    0x0800b08c   0x00000028   Code   RO         3852    i.prvIdleTask       tasks.o
    0x0800b0b4   0x0000002a   Code   RO         3491    i.prvInitialiseNewQueue  queue.o
    0x0800b0de   0x00000092   Code   RO         3853    i.prvInitialiseNewTask  tasks.o
    0x0800b170   0x0000002e   Code   RO         4188    i.prvInitialiseNewTimer  timers.o
    0x0800b19e   0x00000002   PAD
    0x0800b1a0   0x00000068   Code   RO         3854    i.prvInitialiseTaskLists  tasks.o
    0x0800b208   0x00000068   Code   RO         4317    i.prvInsertBlockIntoFreeList  heap_4.o
    0x0800b270   0x00000058   Code   RO         4189    i.prvInsertTimerInActiveList  timers.o
    0x0800b2c8   0x0000001a   Code   RO         3492    i.prvIsQueueEmpty   queue.o
    0x0800b2e2   0x0000001e   Code   RO         3493    i.prvIsQueueFull    queue.o
    0x0800b300   0x00000052   Code   RO         3494    i.prvNotifyQueueSetContainer  queue.o
    0x0800b352   0x00000002   PAD
    0x0800b354   0x0000004c   Code   RO         4190    i.prvProcessExpiredTimer  timers.o
    0x0800b3a0   0x000000cc   Code   RO         4191    i.prvProcessReceivedCommands  timers.o
    0x0800b46c   0x00000074   Code   RO         4192    i.prvProcessTimerOrBlockTask  timers.o
    0x0800b4e0   0x00000034   Code   RO         3855    i.prvResetNextTaskUnblockTime  tasks.o
    0x0800b514   0x0000002c   Code   RO         4193    i.prvSampleTimeNow  timers.o
    0x0800b540   0x00000048   Code   RO         4699    i.prvSendAt2BleModuleCommand  user_cli.o
    0x0800b588   0x00000048   Code   RO         4700    i.prvSendAt2NbModuleCommand  user_cli.o
    0x0800b5d0   0x00000084   Code   RO         4194    i.prvSwitchTimerLists  timers.o
    0x0800b654   0x00000016   Code   RO         3856    i.prvTaskCheckFreeStackSpace  tasks.o
    0x0800b66a   0x00000016   Code   RO         4366    i.prvTaskExitError  port.o
    0x0800b680   0x0000001a   Code   RO         4195    i.prvTimerTask      timers.o
    0x0800b69a   0x00000092   Code   RO         3495    i.prvUnlockQueue    queue.o
    0x0800b72c   0x000000d0   Code   RO         4318    i.pvPortMalloc      heap_4.o
    0x0800b7fc   0x00000024   Code   RO         4367    i.pxPortInitialiseStack  port.o
    0x0800b820   0x00000074   Code   RO         3859    i.ulTaskNotifyTake  tasks.o
    0x0800b894   0x00000028   Code   RO         3447    i.uxListRemove      list.o
    0x0800b8bc   0x00000028   Code   RO         3861    i.uxTaskGetStackHighWaterMark  tasks.o
    0x0800b8e4   0x0000001a   Code   RO         3448    i.vListInitialise   list.o
    0x0800b8fe   0x00000006   Code   RO         3449    i.vListInitialiseItem  list.o
    0x0800b904   0x00000034   Code   RO         3450    i.vListInsert       list.o
    0x0800b938   0x00000018   Code   RO         3451    i.vListInsertEnd    list.o
    0x0800b950   0x00000024   Code   RO         4369    i.vPortEnterCritical  port.o
    0x0800b974   0x00000020   Code   RO         4370    i.vPortExitCritical  port.o
    0x0800b994   0x00000048   Code   RO         4319    i.vPortFree         heap_4.o
    0x0800b9dc   0x00000018   Code   RO         4371    i.vPortSetupTimerInterrupt  port.o
    0x0800b9f4   0x0000002c   Code   RO         3499    i.vQueueAddToRegistry  queue.o
    0x0800ba20   0x0000004a   Code   RO         3502    i.vQueueWaitForMessageRestricted  queue.o
    0x0800ba6a   0x00000002   PAD
    0x0800ba6c   0x00000034   Code   RO         3865    i.vTaskDelay        tasks.o
    0x0800baa0   0x000000cc   Code   RO         3867    i.vTaskDelete       tasks.o
    0x0800bb6c   0x00000018   Code   RO         3869    i.vTaskInternalSetTimeOutState  tasks.o
    0x0800bb84   0x0000000c   Code   RO         3870    i.vTaskMissedYield  tasks.o
    0x0800bb90   0x000000b4   Code   RO         3871    i.vTaskNotifyGiveFromISR  tasks.o
    0x0800bc44   0x00000020   Code   RO         3872    i.vTaskPlaceOnEventList  tasks.o
    0x0800bc64   0x00000028   Code   RO         3873    i.vTaskPlaceOnEventListRestricted  tasks.o
    0x0800bc8c   0x00000074   Code   RO         3880    i.vTaskStartScheduler  tasks.o
    0x0800bd00   0x00000010   Code   RO         3882    i.vTaskSuspendAll   tasks.o
    0x0800bd10   0x000000a4   Code   RO         3883    i.vTaskSwitchContext  tasks.o
    0x0800bdb4   0x0000000c   Code   RO         4321    i.xPortGetFreeHeapSize  heap_4.o
    0x0800bdc0   0x00000034   Code   RO         4372    i.xPortStartScheduler  port.o
    0x0800bdf4   0x00000034   Code   RO         4373    i.xPortSysTickHandler  port.o
    0x0800be28   0x00000038   Code   RO         3507    i.xQueueGenericCreate  queue.o
    0x0800be60   0x00000080   Code   RO         3508    i.xQueueGenericReset  queue.o
    0x0800bee0   0x00000138   Code   RO         3509    i.xQueueGenericSend  queue.o
    0x0800c018   0x0000009c   Code   RO         3510    i.xQueueGenericSendFromISR  queue.o
    0x0800c0b4   0x00000104   Code   RO         3517    i.xQueueReceive     queue.o
    0x0800c1b8   0x0000005c   Code   RO         3884    i.xTaskCheckForTimeOut  tasks.o
    0x0800c214   0x00000060   Code   RO         3885    i.xTaskCreate       tasks.o
    0x0800c274   0x00000020   Code   RO         3889    i.xTaskGetSchedulerState  tasks.o
    0x0800c294   0x0000000c   Code   RO         3890    i.xTaskGetTickCount  tasks.o
    0x0800c2a0   0x0000000c   Code   RO         3891    i.xTaskGetTickCountFromISR  tasks.o
    0x0800c2ac   0x0000011c   Code   RO         3892    i.xTaskIncrementTick  tasks.o
    0x0800c3c8   0x00000084   Code   RO         3895    i.xTaskPriorityDisinherit  tasks.o
    0x0800c44c   0x00000080   Code   RO         3897    i.xTaskRemoveFromEventList  tasks.o
    0x0800c4cc   0x000000e8   Code   RO         3898    i.xTaskResumeAll    tasks.o
    0x0800c5b4   0x00000030   Code   RO         4198    i.xTimerCreate      timers.o
    0x0800c5e4   0x0000003c   Code   RO         4199    i.xTimerCreateTimerTask  timers.o
    0x0800c620   0x0000006c   Code   RO         4200    i.xTimerGenericCommand  timers.o
    0x0800c68c   0x00000088   Data   RO         3076    .constdata          main.o
    0x0800c714   0x00000010   Data   RO         4650    .constdata          freertos_cli.o
    0x0800c724   0x0000057c   Data   RO         4792    .constdata          m5310.o
    0x0800cca0   0x00005a77   Data   RO         4954    .constdata          st7789s.o
    0x08012717   0x00013aae   Data   RO         5132    .constdata          ui.o
    0x080261c5   0x00000048   Data   RO         5251    .constdata          key.o
    0x0802620d   0x00000003   PAD
    0x08026210   0x000002b2   Data   RO         5339    .constdata          bluetooth.o
    0x080264c2   0x00000002   PAD
    0x080264c4   0x000000dd   Data   RO         4651    .conststring        freertos_cli.o
    0x080265a1   0x00000003   PAD
    0x080265a4   0x000002a0   Data   RO         4701    .conststring        user_cli.o
    0x08026844   0x00000053   Data   RO         4793    .conststring        m5310.o
    0x08026897   0x00000001   PAD
    0x08026898   0x00000020   Data   RO         5799    Region$$Table       anon$$obj.o


    Execution Region RW_IRAM1 (Base: 0x20000000, Size: 0x000065f8, Max: 0x0000c000, ABSOLUTE, COMPRESSED[0x000006b8])

    Base Addr    Size         Type   Attr      Idx    E Section Name        Object

    0x20000000   0x00000014   Data   RW         1694    .data               stm32f10x_rcc.o
    0x20000014   0x00000022   Data   RW         3077    .data               main.o
    0x20000036   0x00000002   PAD
    0x20000038   0x00000014   Data   RW         3291    .data               system_stm32f10x.o
    0x2000004c   0x00000044   Data   RW         3901    .data               tasks.o
    0x20000090   0x00000014   Data   RW         4208    .data               timers.o
    0x200000a4   0x00000018   Data   RW         4324    .data               heap_4.o
    0x200000bc   0x00000004   Data   RW         4374    .data               port.o
    0x200000c0   0x00000001   Data   RW         4441    .data               delay.o
    0x200000c1   0x00000002   Data   RW         4513    .data               usart.o
    0x200000c3   0x00000005   PAD
    0x200000c8   0x00000008   Data   RW         4561    .data               timer.o
    0x200000d0   0x00000001   Data   RW         4594    .data               common.o
    0x200000d1   0x00000003   PAD
    0x200000d4   0x00000014   Data   RW         4652    .data               freertos_cli.o
    0x200000e8   0x00000090   Data   RW         4702    .data               user_cli.o
    0x20000178   0x00000004   Data   RW         4794    .data               m5310.o
    0x2000017c   0x000007ae   Data   RW         4955    .data               st7789s.o
    0x2000092a   0x00000002   PAD
    0x2000092c   0x0000000c   Data   RW         5340    .data               bluetooth.o
    0x20000938   0x00000004   Data   RW         5469    .data               mc_w.l(strtok.o)
    0x2000093c   0x000000c8   Zero   RW         3075    .bss                main.o
    0x20000a04   0x00000040   Zero   RW         3524    .bss                queue.o
    0x20000a44   0x000000c8   Zero   RW         3900    .bss                tasks.o
    0x20000b0c   0x00000028   Zero   RW         4207    .bss                timers.o
    0x20000b34   0x00005000   Zero   RW         4323    .bss                heap_4.o
    0x20005b34   0x00000200   Zero   RW         4791    .bss                m5310.o
    0x20005d34   0x00000080   Zero   RW         5131    .bss                ui.o
    0x20005db4   0x00000440   Zero   RW         5338    .bss                bluetooth.o
    0x200061f4   0x00000004   PAD
    0x200061f8   0x00000400   Zero   RW            1    STACK               startup_stm32f10x_hd.o


==============================================================================

Image component sizes


      Code (inc. data)   RO Data    RW Data    ZI Data      Debug   Object Name

       302         22          0          0          0       2086   adc.o
      4228       1858        690         12       1088      13843   bluetooth.o
       800         70          0          1          0       5594   common.o
         0          0          0          0          0        488   croutine.o
       202         16          0          1          0       2121   delay.o
         0          0          0          0          0       9196   event_groups.o
       490         32        237         20          0       5478   freertos_cli.o
       520         68          0         24      20480       4070   heap_4.o
      1444        424         72          0          0       3038   key.o
       148          0          0          0          0       2838   list.o
      7344       2646       1487          4        512      23387   m5310.o
      1424        572        136         34        200      21194   main.o
       172         22          0          0          0     265533   misc.o
       404         48          0          4          0       8796   port.o
      1522         20          0          0         64      13878   queue.o
      5124        170      23159       1966          0      16995   st7789s.o
        36          8        304          0       1024        816   startup_stm32f10x_hd.o
       486         24          0          0          0       7890   stm32f10x_adc.o
        32          6          0          0          0        508   stm32f10x_dbgmcu.o
       200         18          0          0          0       1884   stm32f10x_exti.o
       490         10          0          0          0       3671   stm32f10x_gpio.o
        20          0          0          0          0       2405   stm32f10x_it.o
        68         30          0          0          0       2214   stm32f10x_iwdg.o
       456         66          0         20          0       7184   stm32f10x_rcc.o
       246         42          0          0          0       3234   stm32f10x_tim.o
       616         28          0          0          0       6750   stm32f10x_usart.o
       328         28          0         20          0       2025   system_stm32f10x.o
      2802        438          0         68        200      29185   tasks.o
       176         22          0          8          0       1736   timer.o
      1088        112          0         20         40       9322   timers.o
     11924       2046      80558          0        128      12768   ui.o
      1200        164          0          2          0       4723   usart.o
      1556        652        672        144          0       9195   user_cli.o

    ----------------------------------------------------------------------
     45886       9662     107356       2360      23740     504045   Object Totals
         0          0         32          0          0          0   (incl. Generated)
        38          0          9         12          4          0   (incl. Padding)

    ----------------------------------------------------------------------

      Code (inc. data)   RO Data    RW Data    ZI Data      Debug   Library Member Name

        86          0          0          0          0          0   __dczerorl2.o
         0          0          0          0          0          0   entry.o
         0          0          0          0          0          0   entry10a.o
         0          0          0          0          0          0   entry11a.o
         8          4          0          0          0          0   entry2.o
         4          0          0          0          0          0   entry5.o
         0          0          0          0          0          0   entry7b.o
         0          0          0          0          0          0   entry8b.o
         8          4          0          0          0          0   entry9a.o
        30          0          0          0          0          0   handlers.o
        36          8          0          0          0         68   init.o
         0          0          0          0          0          0   iusefp.o
        30          0          0          0          0         68   llshl.o
        36          0          0          0          0         68   llsshr.o
        32          0          0          0          0         68   llushr.o
        36          0          0          0          0         68   memcpya.o
        36          0          0          0          0        108   memseta.o
      2342         94          0          0          0        744   printfa.o
        24          0          0          0          0         68   strcat.o
        28          0          0          0          0         76   strcmp.o
        14          0          0          0          0         68   strlen.o
        40          0          0          0          0         76   strncat.o
        30          0          0          0          0         80   strncmp.o
        24          0          0          0          0         76   strncpy.o
        36          0          0          0          0         80   strstr.o
        68          6          0          4          0         80   strtok.o
        44          0          0          0          0         80   uidiv.o
        98          0          0          0          0         92   uldiv.o
        48          0          0          0          0         68   cdrcmple.o
        20          0          0          0          0         68   cfrcmple.o
        56          0          0          0          0         88   d2f.o
       334          0          0          0          0        148   dadd.o
       222          0          0          0          0        100   ddiv.o
       186          0          0          0          0        176   depilogue.o
        48          0          0          0          0         68   dfixul.o
       228          0          0          0          0         96   dmul.o
        38          0          0          0          0         68   f2d.o
       124          0          0          0          0         88   fdiv.o
       110          0          0          0          0        168   fepilogue.o
        18          0          0          0          0         68   fflti.o
        10          0          0          0          0         68   ffltui.o
       100          0          0          0          0         76   fmul.o

    ----------------------------------------------------------------------
      4638        116          0          4          0       3316   Library Totals
         6          0          0          0          0          0   (incl. Padding)

    ----------------------------------------------------------------------

      Code (inc. data)   RO Data    RW Data    ZI Data      Debug   Library Name

      3090        116          0          4          0       1968   mc_w.l
      1542          0          0          0          0       1348   mf_w.l

    ----------------------------------------------------------------------
      4638        116          0          4          0       3316   Library Totals

    ----------------------------------------------------------------------

==============================================================================


      Code (inc. data)   RO Data    RW Data    ZI Data      Debug   

     50524       9778     107356       2364      23740     492461   Grand Totals
     50524       9778     107356       1720      23740     492461   ELF Image Totals (compressed)
     50524       9778     107356       1720          0          0   ROM Totals

==============================================================================

    Total RO  Size (Code + RO Data)               157880 ( 154.18kB)
    Total RW  Size (RW Data + ZI Data)             26104 (  25.49kB)
    Total ROM Size (Code + RO Data + RW Data)     159600 ( 155.86kB)

==============================================================================

